0000              1   ;--------------------------------------------------------
0000              2   ; File Created by C51
0000              3   ; Version 1.0.0 #1170 (Feb 16 2022) (MSVC)
0000              4   ; This file was generated Wed Oct 23 22:42:32 2024
0000              5   ;--------------------------------------------------------
                  5   $name cmon51
                  6   $optc51 --model-small
0000              8            R_DSEG    segment data
0000              9            R_CSEG    segment code
0000             10            R_BSEG    segment bit
0000             11            R_XSEG    segment xdata
0000             12            R_PSEG    segment xdata
0000             13            R_ISEG    segment idata
0000             14            R_OSEG    segment data overlay
0000             15            BIT_BANK  segment data overlay
0000             16            R_HOME    segment code
0000             17            R_GSINIT  segment code
0000             18            R_IXSEG   segment xdata
0000             19            R_CONST   segment code
0000             20            R_XINIT   segment code
0000             21            R_DINIT   segment code
0000             22   
0000             23   ;--------------------------------------------------------
0000             24   ; Public variables in this module
0000             25   ;--------------------------------------------------------
0000             26            public _add_byte_buff_PARM_2
0000             27            public _fillmem_PARM_3
0000             28            public _fillmem_PARM_2
0000             29            public _regframe
0000             30            public _cnw
0000             31            public _cnr
0000             32            public _nba
0000             33            public _maskbit
0000             34            public _hexval
0000             35            public _cmdlst
0000             36            public _breakorstep
0000             37            public _nlist
0000             38            public _disp_regs
0000             39            public _add_byte_buff
0000             40            public _getwordn
0000             41            public _cleanbuff
0000             42            public _dispmem
0000             43            public _modifymem
0000             44            public _putcnl
0000             45            public _outwordnl
0000             46            public _outcursor
0000             47            public _outbytenl
0000             48            public _getsn
0000             49            public _clearline
0000             50            public _put_txbuff
0000             51            public _fill_rxbuff
0000             52            public _go_pending
0000             53            public _trace_type
0000             54            public _break_address
0000             55            public _gostep
0000             56            public _saved_int
0000             57            public _saved_jmp
0000             58            public _step_start
0000             59            public _gotbreak
0000             60            public _PC_save
0000             61            public _LEDRB_save
0000             62            public _LEDRA_save
0000             63            public _SP_save
0000             64            public _DPH_save
0000             65            public _DPL_save
0000             66            public _IE_save
0000             67            public _B_save
0000             68            public _PSW_save
0000             69            public _A_save
0000             70            public _br
0000             71            public _iram_save
0000             72            public _breakpoint
0000             73            public _buff_hasdot
0000             74            public _buff_haseq
0000             75            public _keepediting
0000             76            public _validbyte
0000             77            public _dispmem_PARM_3
0000             78            public _dispmem_PARM_2
0000             79            public _modifymem_PARM_2
0000             80            public _cursor
0000             81            public _buff
0000             82            public _putsp
0000             83            public _chartohex
0000             84            public _fillmem
0000             85            public _do_cmd
0000             86   ;--------------------------------------------------------
0000             87   ; Special Function Registers
0000             88   ;--------------------------------------------------------
0000             89   _P0             DATA 0x80
0000             90   _SP             DATA 0x81
0000             91   _DPL            DATA 0x82
0000             92   _DPH            DATA 0x83
0000             93   _PCON           DATA 0x87
0000             94   _TCON           DATA 0x88
0000             95   _TMOD           DATA 0x89
0000             96   _TL0            DATA 0x8a
0000             97   _TL1            DATA 0x8b
0000             98   _TH0            DATA 0x8c
0000             99   _TH1            DATA 0x8d
0000            100   _P1             DATA 0x90
0000            101   _SCON           DATA 0x98
0000            102   _SBUF           DATA 0x99
0000            103   _P2             DATA 0xa0
0000            104   _IE             DATA 0xa8
0000            105   _P3             DATA 0xb0
0000            106   _IP             DATA 0xb8
0000            107   _PSW            DATA 0xd0
0000            108   _ACC            DATA 0xe0
0000            109   _B              DATA 0xf0
0000            110   _T2CON          DATA 0xc8
0000            111   _RCAP2L         DATA 0xca
0000            112   _RCAP2H         DATA 0xcb
0000            113   _TL2            DATA 0xcc
0000            114   _TH2            DATA 0xcd
0000            115   _DPS            DATA 0x86
0000            116   _DPH1           DATA 0x85
0000            117   _DPL1           DATA 0x84
0000            118   _HEX0           DATA 0x91
0000            119   _HEX1           DATA 0x92
0000            120   _HEX2           DATA 0x93
0000            121   _HEX3           DATA 0x94
0000            122   _HEX4           DATA 0x8e
0000            123   _HEX5           DATA 0x8f
0000            124   _LEDRA          DATA 0xe8
0000            125   _LEDRB          DATA 0x95
0000            126   _SWA            DATA 0xe8
0000            127   _SWB            DATA 0x95
0000            128   _KEY            DATA 0xf8
0000            129   _P0MOD          DATA 0x9a
0000            130   _P1MOD          DATA 0x9b
0000            131   _P2MOD          DATA 0x9c
0000            132   _P3MOD          DATA 0x9d
0000            133   _LCD_CMD        DATA 0xd8
0000            134   _LCD_DATA       DATA 0xd9
0000            135   _LCD_MOD        DATA 0xda
0000            136   _JCMD           DATA 0xc0
0000            137   _JBUF           DATA 0xc1
0000            138   _JCNT           DATA 0xc2
0000            139   _REP_ADD_L      DATA 0xf1
0000            140   _REP_ADD_H      DATA 0xf2
0000            141   _REP_VALUE      DATA 0xf3
0000            142   _DEBUG_CALL_L   DATA 0xfa
0000            143   _DEBUG_CALL_H   DATA 0xfb
0000            144   _BPC            DATA 0xfc
0000            145   _BPS            DATA 0xfd
0000            146   _BPAL           DATA 0xfe
0000            147   _BPAH           DATA 0xff
0000            148   _LBPAL          DATA 0xfa
0000            149   _LBPAH          DATA 0xfb
0000            150   _XRAMUSEDAS     DATA 0xc3
0000            151   _FLASH_CMD      DATA 0xdb
0000            152   _FLASH_DATA     DATA 0xdc
0000            153   _FLASH_MOD      DATA 0xdd
0000            154   _FLASH_ADD0     DATA 0xe1
0000            155   _FLASH_ADD1     DATA 0xe2
0000            156   _FLASH_ADD2     DATA 0xe3
0000            157   ;--------------------------------------------------------
0000            158   ; special function bits
0000            159   ;--------------------------------------------------------
0000            160   _P0_0           BIT 0x80
0000            161   _P0_1           BIT 0x81
0000            162   _P0_2           BIT 0x82
0000            163   _P0_3           BIT 0x83
0000            164   _P0_4           BIT 0x84
0000            165   _P0_5           BIT 0x85
0000            166   _P0_6           BIT 0x86
0000            167   _P0_7           BIT 0x87
0000            168   _IT0            BIT 0x88
0000            169   _IE0            BIT 0x89
0000            170   _IT1            BIT 0x8a
0000            171   _IE1            BIT 0x8b
0000            172   _TR0            BIT 0x8c
0000            173   _TF0            BIT 0x8d
0000            174   _TR1            BIT 0x8e
0000            175   _TF1            BIT 0x8f
0000            176   _P1_0           BIT 0x90
0000            177   _P1_1           BIT 0x91
0000            178   _P1_2           BIT 0x92
0000            179   _P1_3           BIT 0x93
0000            180   _P1_4           BIT 0x94
0000            181   _P1_5           BIT 0x95
0000            182   _P1_6           BIT 0x96
0000            183   _P1_7           BIT 0x97
0000            184   _RI             BIT 0x98
0000            185   _TI             BIT 0x99
0000            186   _RB8            BIT 0x9a
0000            187   _TB8            BIT 0x9b
0000            188   _REN            BIT 0x9c
0000            189   _SM2            BIT 0x9d
0000            190   _SM1            BIT 0x9e
0000            191   _SM0            BIT 0x9f
0000            192   _P2_0           BIT 0xa0
0000            193   _P2_1           BIT 0xa1
0000            194   _P2_2           BIT 0xa2
0000            195   _P2_3           BIT 0xa3
0000            196   _P2_4           BIT 0xa4
0000            197   _P2_5           BIT 0xa5
0000            198   _P2_6           BIT 0xa6
0000            199   _P2_7           BIT 0xa7
0000            200   _EX0            BIT 0xa8
0000            201   _ET0            BIT 0xa9
0000            202   _EX1            BIT 0xaa
0000            203   _ET1            BIT 0xab
0000            204   _ES             BIT 0xac
0000            205   _ET2            BIT 0xad
0000            206   _EA             BIT 0xaf
0000            207   _P3_0           BIT 0xb0
0000            208   _P3_1           BIT 0xb1
0000            209   _P3_2           BIT 0xb2
0000            210   _P3_3           BIT 0xb3
0000            211   _P3_4           BIT 0xb4
0000            212   _P3_5           BIT 0xb5
0000            213   _P3_6           BIT 0xb6
0000            214   _P3_7           BIT 0xb7
0000            215   _RXD            BIT 0xb0
0000            216   _TXD            BIT 0xb1
0000            217   _INT0           BIT 0xb2
0000            218   _INT1           BIT 0xb3
0000            219   _T0             BIT 0xb4
0000            220   _T1             BIT 0xb5
0000            221   _WR             BIT 0xb6
0000            222   _RD             BIT 0xb7
0000            223   _PX0            BIT 0xb8
0000            224   _PT0            BIT 0xb9
0000            225   _PX1            BIT 0xba
0000            226   _PT1            BIT 0xbb
0000            227   _PS             BIT 0xbc
0000            228   _PT2            BIT 0xbd
0000            229   _P              BIT 0xd0
0000            230   _F1             BIT 0xd1
0000            231   _OV             BIT 0xd2
0000            232   _RS0            BIT 0xd3
0000            233   _RS1            BIT 0xd4
0000            234   _F0             BIT 0xd5
0000            235   _AC             BIT 0xd6
0000            236   _CY             BIT 0xd7
0000            237   _T2CON_0        BIT 0xc8
0000            238   _T2CON_1        BIT 0xc9
0000            239   _T2CON_2        BIT 0xca
0000            240   _T2CON_3        BIT 0xcb
0000            241   _T2CON_4        BIT 0xcc
0000            242   _T2CON_5        BIT 0xcd
0000            243   _T2CON_6        BIT 0xce
0000            244   _T2CON_7        BIT 0xcf
0000            245   _CP_RL2         BIT 0xc8
0000            246   _C_T2           BIT 0xc9
0000            247   _TR2            BIT 0xca
0000            248   _EXEN2          BIT 0xcb
0000            249   _TCLK           BIT 0xcc
0000            250   _RCLK           BIT 0xcd
0000            251   _EXF2           BIT 0xce
0000            252   _TF2            BIT 0xcf
0000            253   _LEDRA_0        BIT 0xe8
0000            254   _LEDRA_1        BIT 0xe9
0000            255   _LEDRA_2        BIT 0xea
0000            256   _LEDRA_3        BIT 0xeb
0000            257   _LEDRA_4        BIT 0xec
0000            258   _LEDRA_5        BIT 0xed
0000            259   _LEDRA_6        BIT 0xee
0000            260   _LEDRA_7        BIT 0xef
0000            261   _SWA_0          BIT 0xe8
0000            262   _SWA_1          BIT 0xe9
0000            263   _SWA_2          BIT 0xea
0000            264   _SWA_3          BIT 0xeb
0000            265   _SWA_4          BIT 0xec
0000            266   _SWA_5          BIT 0xed
0000            267   _SWA_6          BIT 0xee
0000            268   _SWA_7          BIT 0xef
0000            269   _KEY_0          BIT 0xf8
0000            270   _KEY_1          BIT 0xf9
0000            271   _KEY_2          BIT 0xfa
0000            272   _KEY_3          BIT 0xfb
0000            273   _LCD_RW         BIT 0xd8
0000            274   _LCD_EN         BIT 0xd9
0000            275   _LCD_RS         BIT 0xda
0000            276   _LCD_ON         BIT 0xdb
0000            277   _LCD_BLON       BIT 0xdc
0000            278   _JRXRDY         BIT 0xc0
0000            279   _JTXRDY         BIT 0xc1
0000            280   _JRXEN          BIT 0xc2
0000            281   _JTXEN          BIT 0xc3
0000            282   _JTXFULL        BIT 0xc4
0000            283   _JRXFULL        BIT 0xc5
0000            284   _JTXEMPTY       BIT 0xc6
0000            285   _JTDI           BIT 0xc7
0000            286   ;--------------------------------------------------------
0000            287   ; overlayable register banks
0000            288   ;--------------------------------------------------------
0000            289            rbank0 segment data overlay
0000            290   ;--------------------------------------------------------
0000            291   ; internal ram data
0000            292   ;--------------------------------------------------------
0000            293            rseg R_DSEG
0000            294   _buff:
0000            295            ds 32
0020            296   _cursor:
0020            297            ds 1
0021            298   _modifymem_PARM_2:
0021            299            ds 1
0022            300   _modifymem_ptr_1_120:
0022            301            ds 3
0025            302   _dispmem_PARM_2:
0025            303            ds 2
0027            304   _dispmem_PARM_3:
0027            305            ds 1
0028            306   _dispmem_begin_1_131:
0028            307            ds 3
002B            308   _dispmem_j_1_132:
002B            309            ds 2
002D            310   _do_cmd_i_1_168:
002D            311            ds 2
002F            312   _do_cmd_j_1_168:
002F            313            ds 2
0031            314   _do_cmd_n_1_168:
0031            315            ds 2
0033            316   _do_cmd_q_1_168:
0033            317            ds 2
0035            318   _do_cmd_y_1_168:
0035            319            ds 1
0036            320   _do_cmd_cmd_1_168:
0036            321            ds 1
0037            322   _do_cmd_sloc0_1_0:
0037            323            ds 2
0039            324   ;--------------------------------------------------------
0039            325   ; overlayable items in internal ram 
0039            326   ;--------------------------------------------------------
0000            327            rseg    R_OSEG
0000            328            rseg    R_OSEG
0000            329            rseg    R_OSEG
0000            330   _fillmem_PARM_2:
0000            331            ds 2
0002            332   _fillmem_PARM_3:
0002            333            ds 1
0003            334            rseg    R_OSEG
0003            335   _add_byte_buff_PARM_2:
0003            336            ds 1
0004            337            rseg    R_OSEG
0004            338   _nlist_q_1_153:
0004            339            ds 1
0005            340   _nlist_sloc0_1_0:
0005            341            ds 3
0008            342   ;--------------------------------------------------------
0008            343   ; indirectly addressable internal ram data
0008            344   ;--------------------------------------------------------
0000            345            rseg R_ISEG
0000            346   ;--------------------------------------------------------
0000            347   ; absolute internal ram data
0000            348   ;--------------------------------------------------------
0000            349            DSEG
0000            350   ;--------------------------------------------------------
0000            351   ; bit data
0000            352   ;--------------------------------------------------------
0000            353            rseg R_BSEG
0000            354   _validbyte:
0000            355            DBIT    1
0001            356   _keepediting:
0001            357            DBIT    1
0002            358   _buff_haseq:
0002            359            DBIT    1
0003            360   _buff_hasdot:
0003            361            DBIT    1
0004            362   _breakpoint:
0004            363            DBIT    1
0005            364   _do_cmd_p_bit_1_168:
0005            365            DBIT    1
0006            366   ;--------------------------------------------------------
0006            367   ; paged external ram data
0006            368   ;--------------------------------------------------------
0000            369            rseg R_PSEG
0000            370   ;--------------------------------------------------------
0000            371   ; external ram data
0000            372   ;--------------------------------------------------------
0000            373            rseg R_XSEG
80FF            374            XSEG at 0x80ff
80FF            375   _rxcount: ds 1
8100            376            public _rxcount
0000            377            rseg R_XSEG
8000            378            XSEG at 0x8000
8000            379   _rxbuff: ds 255
80FF            380            public _rxbuff
0000            381            rseg R_XSEG
AFFF            382            XSEG at 0xafff
AFFF            383   _txcount: ds 1
B000            384            public _txcount
0000            385            rseg R_XSEG
8100            386            XSEG at 0x8100
8100            387   _txbuff: ds 12031
AFFF            388            public _txbuff
0000            389            rseg R_XSEG
0000            390   _iram_save:
0000            391            ds 128
0080            392   _br:
0080            393            ds 8
0088            394   _A_save:
0088            395            ds 1
0089            396   _PSW_save:
0089            397            ds 1
008A            398   _B_save:
008A            399            ds 1
008B            400   _IE_save:
008B            401            ds 1
008C            402   _DPL_save:
008C            403            ds 2
008E            404   _DPH_save:
008E            405            ds 2
0090            406   _SP_save:
0090            407            ds 1
0091            408   _LEDRA_save:
0091            409            ds 1
0092            410   _LEDRB_save:
0092            411            ds 1
0093            412   _PC_save:
0093            413            ds 2
0095            414   _gotbreak:
0095            415            ds 1
0096            416   _step_start:
0096            417            ds 2
0098            418   _saved_jmp:
0098            419            ds 3
009B            420   _saved_int:
009B            421            ds 3
009E            422   _gostep:
009E            423            ds 1
009F            424   _break_address:
009F            425            ds 2
00A1            426   _trace_type:
00A1            427            ds 1
00A2            428   _go_pending:
00A2            429            ds 1
00A3            430   ;--------------------------------------------------------
00A3            431   ; absolute external ram data
00A3            432   ;--------------------------------------------------------
AFFF            433            XSEG
AFFF            434   ;--------------------------------------------------------
AFFF            435   ; external initialized ram data
AFFF            436   ;--------------------------------------------------------
0000            437            rseg R_IXSEG
0000            438            rseg R_HOME
0000            439            rseg R_GSINIT
0000            440            rseg R_CSEG
0000            441   ;--------------------------------------------------------
0000            442   ; Interrupt vectors
0000            443   ;--------------------------------------------------------
0000            444   ;--------------------------------------------------------
0000            445   ; global & static initialisations
0000            446   ;--------------------------------------------------------
0000            447            rseg R_HOME
0000            448            rseg R_GSINIT
0000            449            rseg R_GSINIT
0000            450   ;--------------------------------------------------------
0000            451   ; data variables initialization
0000            452   ;--------------------------------------------------------
0000            453            rseg R_DINIT
0000            454            ; The linker places a 'ret' at the end of segment R_DINIT.
0000            455   ;--------------------------------------------------------
0000            456   ; code
0000            457   ;--------------------------------------------------------
0000            458            rseg R_CSEG
0000            459   ;------------------------------------------------------------
0000            460   ;Allocation info for local variables in function 'fill_rxbuff'
0000            461   ;------------------------------------------------------------
0000            462   ;c                         Allocated to registers r3 
0000            463   ;j                         Allocated to registers r2 
0000            464   ;------------------------------------------------------------
0000            465   ;        .\cmon51.c:79: void fill_rxbuff(void)
0000            466   ;        -----------------------------------------
0000            467   ;         function fill_rxbuff
0000            468   ;        -----------------------------------------
0000            469   _fill_rxbuff:
0000            470            using   0
0000            471   ;        .\cmon51.c:84: while(j<254)
0000 7A00       472            mov     r2,#0x00
0002            473   L002014?:
0002 BAFE88     474            cjne    r2,#0xFE,L002028?
0005            475   L002028?:
0005 5000       476            jnc     L002016?
0007            477   ;        .\cmon51.c:86: if(RI)
0007            478   ;        .\cmon51.c:88: RI=0;
0007 109808     479            jbc     _RI,L002030?
000A 8000       480            sjmp    L002014?
000C            481   L002030?:
000C            482   ;        .\cmon51.c:89: c=SBUF;
000C AB99       483            mov     r3,_SBUF
000E            484   ;        .\cmon51.c:92: while (!TI);
000E            485   L002001?:
000E            486   ;        .\cmon51.c:93: TI=0;
000E 109988     487            jbc     _TI,L002031?
0011 8000       488            sjmp    L002001?
0013            489   L002031?:
0013            490   ;        .\cmon51.c:94: SBUF=c;
0013 8B99       491            mov     _SBUF,r3
0015            492   ;        .\cmon51.c:96: if (c=='\r')
0015 E4         493            clr     a
0016 BB0DC8     494            cjne    r3,#0x0D,L002032?
0019 04         495            inc     a
001A            496   L002032?:
001A FC         497            mov     r4,a
001B 6000       498            jz      L002008?
001D            499   ;        .\cmon51.c:98: while (!TI);
001D            500   L002004?:
001D            501   ;        .\cmon51.c:99: TI=0;
001D 109988     502            jbc     _TI,L002035?
0020 8000       503            sjmp    L002004?
0022            504   L002035?:
0022            505   ;        .\cmon51.c:100: SBUF='\n';
0022 75990A     506            mov     _SBUF,#0x0A
0025            507   L002008?:
0025            508   ;        .\cmon51.c:103: rxbuff[j]=c;
0025 8A82       509            mov     dpl,r2
0027 758380     510            mov     dph,#(_rxbuff >> 8)
002A EB         511            mov     a,r3
002B F0         512            movx    @dptr,a
002C            513   ;        .\cmon51.c:104: j++;
002C 0A         514            inc     r2
002D            515   ;        .\cmon51.c:105: if((c=='\r') || (c=='\n')) break;
002D EC         516            mov     a,r4
002E 7000       517            jnz     L002016?
0030 BB0A48     518            cjne    r3,#0x0A,L002014?
0033            519   L002016?:
0033            520   ;        .\cmon51.c:108: rxbuff[j]=0;
0033 8A82       521            mov     dpl,r2
0035 758380     522            mov     dph,#(_rxbuff >> 8)
0038 E4         523            clr     a
0039 F0         524            movx    @dptr,a
003A 22         525            ret
003B            526   ;------------------------------------------------------------
003B            527   ;Allocation info for local variables in function 'put_txbuff'
003B            528   ;------------------------------------------------------------
003B            529   ;j                         Allocated to registers r2 r3 
003B            530   ;------------------------------------------------------------
003B            531   ;        .\cmon51.c:111: void put_txbuff(void)
003B            532   ;        -----------------------------------------
003B            533   ;         function put_txbuff
003B            534   ;        -----------------------------------------
003B            535   _put_txbuff:
003B            536   ;        .\cmon51.c:114: for(j=0; txbuff[j]!=0; j++)
003B 7A00       537            mov     r2,#0x00
003D 7B00       538            mov     r3,#0x00
003F            539   L003004?:
003F 8A82       540            mov     dpl,r2
0041 7481       541            mov     a,#(_txbuff >> 8)
0043 2B         542            add     a,r3
0044 F583       543            mov     dph,a
0046 E0         544            movx    a,@dptr
0047 FC         545            mov     r4,a
0048 6000       546            jz      L003007?
004A            547   ;        .\cmon51.c:116: while (!TI);
004A            548   L003001?:
004A            549   ;        .\cmon51.c:117: TI=0;
004A 109908     550            jbc     _TI,L003015?
004D 8000       551            sjmp    L003001?
004F            552   L003015?:
004F            553   ;        .\cmon51.c:118: SBUF=txbuff[j];
004F 8A82       554            mov     dpl,r2
0051 7481       555            mov     a,#(_txbuff >> 8)
0053 2B         556            add     a,r3
0054 F583       557            mov     dph,a
0056 E0         558            movx    a,@dptr
0057 F599       559            mov     _SBUF,a
0059            560   ;        .\cmon51.c:114: for(j=0; txbuff[j]!=0; j++)
0059 0A         561            inc     r2
005A BA0048     562            cjne    r2,#0x00,L003004?
005D 0B         563            inc     r3
005E 8000       564            sjmp    L003004?
0060            565   L003007?:
0060            566   ;        .\cmon51.c:120: txcount++;
0060 90AFFF     567            mov     dptr,#_txcount
0063 E0         568            movx    a,@dptr
0064 2401       569            add     a,#0x01
0066 F0         570            movx    @dptr,a
0067 22         571            ret
0068            572   ;------------------------------------------------------------
0068            573   ;Allocation info for local variables in function 'putsp'
0068            574   ;------------------------------------------------------------
0068            575   ;x                         Allocated to registers r2 r3 r4 
0068            576   ;j                         Allocated to registers r5 r6 
0068            577   ;------------------------------------------------------------
0068            578   ;        .\cmon51.c:124: void putsp(unsigned char * x)
0068            579   ;        -----------------------------------------
0068            580   ;         function putsp
0068            581   ;        -----------------------------------------
0068            582   _putsp:
0068 AA82       583            mov     r2,dpl
006A AB83       584            mov     r3,dph
006C ACF0       585            mov     r4,b
006E            586   ;        .\cmon51.c:128: j=0;
006E 7D00       587            mov     r5,#0x00
0070 7E00       588            mov     r6,#0x00
0072 A2B3       589            mov     c,_P3_3
0074            590   ;        .\cmon51.c:133: while( ((*x)>0) && ((*x)<0x80) )
0074            591   L004004?:
0074 8A82       592            mov     dpl,r2
0076 8B83       593            mov     dph,r3
0078 8CF0       594            mov     b,r4
007A 120000     595            lcall   __gptrget
007D FF         596            mov     r7,a
007E 6000       597            jz      L004006?
0080 BF8048     598            cjne    r7,#0x80,L004018?
0083            599   L004018?:
0083 5000       600            jnc     L004006?
0085            601   ;        .\cmon51.c:135: if(*x==(unsigned char)'\n') txbuff[j++]='\r';
0085 BF0A88     602            cjne    r7,#0x0A,L004002?
0088 8D07       603            mov     ar7,r5
008A 8E00       604            mov     ar0,r6
008C 0D         605            inc     r5
008D BD00C8     606            cjne    r5,#0x00,L004022?
0090 0E         607            inc     r6
0091            608   L004022?:
0091 8F82       609            mov     dpl,r7
0093 7481       610            mov     a,#(_txbuff >> 8)
0095 28         611            add     a,r0
0096 F583       612            mov     dph,a
0098 740D       613            mov     a,#0x0D
009A F0         614            movx    @dptr,a
009B            615   L004002?:
009B            616   ;        .\cmon51.c:136: txbuff[j]=*x;
009B 8D07       617            mov     ar7,r5
009D 7481       618            mov     a,#(_txbuff >> 8)
009F 2E         619            add     a,r6
00A0 F8         620            mov     r0,a
00A1 8A82       621            mov     dpl,r2
00A3 8B83       622            mov     dph,r3
00A5 8CF0       623            mov     b,r4
00A7 120000     624            lcall   __gptrget
00AA F9         625            mov     r1,a
00AB A3         626            inc     dptr
00AC AA82       627            mov     r2,dpl
00AE AB83       628            mov     r3,dph
00B0 8F82       629            mov     dpl,r7
00B2 8883       630            mov     dph,r0
00B4 E9         631            mov     a,r1
00B5 F0         632            movx    @dptr,a
00B6            633   ;        .\cmon51.c:137: x++;
00B6            634   ;        .\cmon51.c:138: j++;
00B6 0D         635            inc     r5
00B7 BD0088     636            cjne    r5,#0x00,L004004?
00BA 0E         637            inc     r6
00BB 8000       638            sjmp    L004004?
00BD            639   L004006?:
00BD            640   ;        .\cmon51.c:140: txbuff[j]=0;
00BD 8D82       641            mov     dpl,r5
00BF 7481       642            mov     a,#(_txbuff >> 8)
00C1 2E         643            add     a,r6
00C2 F583       644            mov     dph,a
00C4 E4         645            clr     a
00C5 F0         646            movx    @dptr,a
00C6            647   ;        .\cmon51.c:141: txcount++;
00C6 90AFFF     648            mov     dptr,#_txcount
00C9 E0         649            movx    a,@dptr
00CA 2401       650            add     a,#0x01
00CC F0         651            movx    @dptr,a
00CD            652   ;        .\cmon51.c:142: if(P3_3==0) put_txbuff();
00CD 20B308     653            jb      _P3_3,L004009?
00D0 020000     654            ljmp    _put_txbuff
00D3            655   L004009?:
00D3 22         656            ret
00D4            657   ;------------------------------------------------------------
00D4            658   ;Allocation info for local variables in function 'clearline'
00D4            659   ;------------------------------------------------------------
00D4            660   ;j                         Allocated to registers r2 
00D4            661   ;------------------------------------------------------------
00D4            662   ;        .\cmon51.c:145: void clearline (void)
00D4            663   ;        -----------------------------------------
00D4            664   ;         function clearline
00D4            665   ;        -----------------------------------------
00D4            666   _clearline:
00D4            667   ;        .\cmon51.c:153: txbuff[0]='\r';
00D4 A2B3       668            mov     c,_P3_3
00D6 908100     669            mov     dptr,#_txbuff
00D9 740D       670            mov     a,#0x0D
00DB F0         671            movx    @dptr,a
00DC            672   ;        .\cmon51.c:154: for(j=1; j<80; j++) txbuff[j]=' ';
00DC 7A01       673            mov     r2,#0x01
00DE            674   L005003?:
00DE BA5088     675            cjne    r2,#0x50,L005013?
00E1            676   L005013?:
00E1 5000       677            jnc     L005006?
00E3 8A82       678            mov     dpl,r2
00E5 758381     679            mov     dph,#(_txbuff >> 8)
00E8 7420       680            mov     a,#0x20
00EA F0         681            movx    @dptr,a
00EB 0A         682            inc     r2
00EC 8000       683            sjmp    L005003?
00EE            684   L005006?:
00EE            685   ;        .\cmon51.c:155: txbuff[j]='\r';
00EE 8A82       686            mov     dpl,r2
00F0 758381     687            mov     dph,#(_txbuff >> 8)
00F3 740D       688            mov     a,#0x0D
00F5 F0         689            movx    @dptr,a
00F6            690   ;        .\cmon51.c:156: txbuff[j+1]=0;
00F6 7B00       691            mov     r3,#0x00
00F8 0A         692            inc     r2
00F9 BA0008     693            cjne    r2,#0x00,L005015?
00FC 0B         694            inc     r3
00FD            695   L005015?:
00FD 8A82       696            mov     dpl,r2
00FF 7481       697            mov     a,#(_txbuff >> 8)
0101 2B         698            add     a,r3
0102 F583       699            mov     dph,a
0104 E4         700            clr     a
0105 F0         701            movx    @dptr,a
0106            702   ;        .\cmon51.c:157: txcount++; // Signal to the quartus_stp memory editor that new data is available
0106 90AFFF     703            mov     dptr,#_txcount
0109 E0         704            movx    a,@dptr
010A 2401       705            add     a,#0x01
010C F0         706            movx    @dptr,a
010D            707   ;        .\cmon51.c:158: if(P3_3==0) put_txbuff();
010D 20B348     708            jb      _P3_3,L005007?
0110 020000     709            ljmp    _put_txbuff
0113            710   L005007?:
0113 22         711            ret
0114            712   ;------------------------------------------------------------
0114            713   ;Allocation info for local variables in function 'getsn'
0114            714   ;------------------------------------------------------------
0114            715   ;j                         Allocated to registers r2 
0114            716   ;------------------------------------------------------------
0114            717   ;        .\cmon51.c:161: void getsn (void)
0114            718   ;        -----------------------------------------
0114            719   ;         function getsn
0114            720   ;        -----------------------------------------
0114            721   _getsn:
0114            722   ;        .\cmon51.c:165: if(P3_3==1)
0114 30B388     723            jnb     _P3_3,L006005?
0117            724   ;        .\cmon51.c:167: j=rxcount;
0117 9080FF     725            mov     dptr,#_rxcount
011A E0         726            movx    a,@dptr
011B FA         727            mov     r2,a
011C            728   ;        .\cmon51.c:168: while(rxcount==j); // Wait for data to arrive
011C            729   L006001?:
011C 9080FF     730            mov     dptr,#_rxcount
011F E0         731            movx    a,@dptr
0120 FB         732            mov     r3,a
0121 B50208     733            cjne    a,ar2,L006021?
0124 8000       734            sjmp    L006001?
0126            735   L006005?:
0126            736   ;        .\cmon51.c:172: fill_rxbuff();
0126 120000     737            lcall   _fill_rxbuff
0129            738   ;        .\cmon51.c:175: for(j=0; rxbuff[j]!=0; j++)
0129            739   L006021?:
0129 7A00       740            mov     r2,#0x00
012B            741   L006010?:
012B 8A03       742            mov     ar3,r2
012D 7C80       743            mov     r4,#(_rxbuff >> 8)
012F 8B82       744            mov     dpl,r3
0131 8C83       745            mov     dph,r4
0133 E0         746            movx    a,@dptr
0134 6000       747            jz      L006013?
0136            748   ;        .\cmon51.c:177: if(j<(BUFFSIZE-1))
0136 BA1FC8     749            cjne    r2,#0x1F,L006027?
0139            750   L006027?:
0139 5000       751            jnc     L006013?
013B            752   ;        .\cmon51.c:179: buff[j]=rxbuff[j];
013B EA         753            mov     a,r2
013C 2498       754            add     a,#_buff
013E F8         755            mov     r0,a
013F 8A82       756            mov     dpl,r2
0141 758380     757            mov     dph,#(_rxbuff >> 8)
0144 E0         758            movx    a,@dptr
0145 FB         759            mov     r3,a
0146 F6         760            mov     @r0,a
0147            761   ;        .\cmon51.c:175: for(j=0; rxbuff[j]!=0; j++)
0147 0A         762            inc     r2
0148 8000       763            sjmp    L006010?
014A            764   L006013?:
014A            765   ;        .\cmon51.c:186: buff[j]=0;
014A EA         766            mov     a,r2
014B 2498       767            add     a,#_buff
014D F8         768            mov     r0,a
014E 7600       769            mov     @r0,#0x00
0150 22         770            ret
0151            771   ;------------------------------------------------------------
0151            772   ;Allocation info for local variables in function 'chartohex'
0151            773   ;------------------------------------------------------------
0151            774   ;c                         Allocated to registers 
0151            775   ;i                         Allocated to registers r2 
0151            776   ;------------------------------------------------------------
0151            777   ;        .\cmon51.c:189: unsigned char chartohex(char c)
0151            778   ;        -----------------------------------------
0151            779   ;         function chartohex
0151            780   ;        -----------------------------------------
0151            781   _chartohex:
0151            782   ;        .\cmon51.c:192: i=toupper(c)-'0';
0151 120000     783            lcall   _toupper
0154 E582       784            mov     a,dpl
0156 24D0       785            add     a,#0xd0
0158            786   ;        .\cmon51.c:193: if(i>9) i-=7; //letter from A to F
0158 FA         787            mov  r2,a
0159 24F6       788            add     a,#0xff - 0x09
015B 5000       789            jnc     L007002?
015D EA         790            mov     a,r2
015E 24F9       791            add     a,#0xf9
0160 FA         792            mov     r2,a
0161            793   L007002?:
0161            794   ;        .\cmon51.c:194: return i;
0161 8A82       795            mov     dpl,r2
0163 22         796            ret
0164            797   ;------------------------------------------------------------
0164            798   ;Allocation info for local variables in function 'outbytenl'
0164            799   ;------------------------------------------------------------
0164            800   ;x                         Allocated to registers r2 
0164            801   ;------------------------------------------------------------
0164            802   ;        .\cmon51.c:197: void outbytenl(unsigned char x)
0164            803   ;        -----------------------------------------
0164            804   ;         function outbytenl
0164            805   ;        -----------------------------------------
0164            806   _outbytenl:
0164 AA82       807            mov     r2,dpl
0166            808   ;        .\cmon51.c:199: get_txbuff();
0166 C002       809            push    ar2
0168 120000     810            lcall   _get_txbuff
016B D002       811            pop     ar2
016D            812   ;        .\cmon51.c:200: add_byte_txbuff(x);
016D 8A82       813            mov     dpl,r2
016F 120000     814            lcall   _add_byte_txbuff
0172            815   ;        .\cmon51.c:201: add_nlcursor_txbuff();
0172 120000     816            lcall   _add_nlcursor_txbuff
0175            817   ;        .\cmon51.c:202: flush_txbuff();
0175 020000     818            ljmp    _flush_txbuff
0178            819   ;------------------------------------------------------------
0178            820   ;Allocation info for local variables in function 'outcursor'
0178            821   ;------------------------------------------------------------
0178            822   ;------------------------------------------------------------
0178            823   ;        .\cmon51.c:205: void outcursor(void)
0178            824   ;        -----------------------------------------
0178            825   ;         function outcursor
0178            826   ;        -----------------------------------------
0178            827   _outcursor:
0178            828   ;        .\cmon51.c:207: get_txbuff();
0178 120000     829            lcall   _get_txbuff
017B            830   ;        .\cmon51.c:208: add_cursor_txbuff();
017B 120000     831            lcall   _add_cursor_txbuff
017E            832   ;        .\cmon51.c:209: flush_txbuff();
017E 020000     833            ljmp    _flush_txbuff
0181            834   ;------------------------------------------------------------
0181            835   ;Allocation info for local variables in function 'outwordnl'
0181            836   ;------------------------------------------------------------
0181            837   ;val                       Allocated to registers r2 r3 
0181            838   ;------------------------------------------------------------
0181            839   ;        .\cmon51.c:212: void outwordnl (unsigned int val)
0181            840   ;        -----------------------------------------
0181            841   ;         function outwordnl
0181            842   ;        -----------------------------------------
0181            843   _outwordnl:
0181 AA82       844            mov     r2,dpl
0183 AB83       845            mov     r3,dph
0185            846   ;        .\cmon51.c:214: get_txbuff();
0185 C002       847            push    ar2
0187 C003       848            push    ar3
0189 120000     849            lcall   _get_txbuff
018C D003       850            pop     ar3
018E D002       851            pop     ar2
0190            852   ;        .\cmon51.c:215: add_word_txbuff(val);
0190 8A82       853            mov     dpl,r2
0192 8B83       854            mov     dph,r3
0194 120000     855            lcall   _add_word_txbuff
0197            856   ;        .\cmon51.c:216: add_nlcursor_txbuff();
0197 120000     857            lcall   _add_nlcursor_txbuff
019A            858   ;        .\cmon51.c:217: flush_txbuff();
019A 020000     859            ljmp    _flush_txbuff
019D            860   ;------------------------------------------------------------
019D            861   ;Allocation info for local variables in function 'putcnl'
019D            862   ;------------------------------------------------------------
019D            863   ;c                         Allocated to registers r2 
019D            864   ;------------------------------------------------------------
019D            865   ;        .\cmon51.c:220: void putcnl(char c)
019D            866   ;        -----------------------------------------
019D            867   ;         function putcnl
019D            868   ;        -----------------------------------------
019D            869   _putcnl:
019D AA82       870            mov     r2,dpl
019F            871   ;        .\cmon51.c:222: get_txbuff();
019F C002       872            push    ar2
01A1 120000     873            lcall   _get_txbuff
01A4 D002       874            pop     ar2
01A6            875   ;        .\cmon51.c:223: add_char_txbuff(c);
01A6 8A82       876            mov     dpl,r2
01A8 120000     877            lcall   _add_char_txbuff
01AB            878   ;        .\cmon51.c:224: add_nlcursor_txbuff();
01AB 120000     879            lcall   _add_nlcursor_txbuff
01AE            880   ;        .\cmon51.c:225: flush_txbuff();
01AE 020000     881            ljmp    _flush_txbuff
01B1            882   ;------------------------------------------------------------
01B1            883   ;Allocation info for local variables in function 'fillmem'
01B1            884   ;------------------------------------------------------------
01B1            885   ;len                       Allocated with name '_fillmem_PARM_2'
01B1            886   ;val                       Allocated with name '_fillmem_PARM_3'
01B1            887   ;begin                     Allocated to registers r2 r3 r4 
01B1            888   ;------------------------------------------------------------
01B1            889   ;        .\cmon51.c:229: void fillmem(unsigned char * begin,  unsigned int len, unsigned char val)
01B1            890   ;        -----------------------------------------
01B1            891   ;         function fillmem
01B1            892   ;        -----------------------------------------
01B1            893   _fillmem:
01B1 AA82       894            mov     r2,dpl
01B3 AB83       895            mov     r3,dph
01B5 ACF0       896            mov     r4,b
01B7            897   ;        .\cmon51.c:231: while(len)
01B7 ADE0       898            mov     r5,_fillmem_PARM_2
01B9 AEE1       899            mov     r6,(_fillmem_PARM_2 + 1)
01BB            900   L012001?:
01BB ED         901            mov     a,r5
01BC 4E         902            orl     a,r6
01BD 6000       903            jz      L012004?
01BF            904   ;        .\cmon51.c:233: *begin=val;
01BF 8A82       905            mov     dpl,r2
01C1 8B83       906            mov     dph,r3
01C3 8CF0       907            mov     b,r4
01C5 E5A0       908            mov     a,_fillmem_PARM_3
01C7 120000     909            lcall   __gptrput
01CA A3         910            inc     dptr
01CB AA82       911            mov     r2,dpl
01CD AB83       912            mov     r3,dph
01CF            913   ;        .\cmon51.c:234: begin++;
01CF            914   ;        .\cmon51.c:235: len--;
01CF 1D         915            dec     r5
01D0 BDFF98     916            cjne    r5,#0xff,L012001?
01D3 1E         917            dec     r6
01D4 8000       918            sjmp    L012001?
01D6            919   L012004?:
01D6 22         920            ret
01D7            921   ;------------------------------------------------------------
01D7            922   ;Allocation info for local variables in function 'modifymem'
01D7            923   ;------------------------------------------------------------
01D7            924   ;loc                       Allocated with name '_modifymem_PARM_2'
01D7            925   ;ptr                       Allocated with name '_modifymem_ptr_1_120'
01D7            926   ;j                         Allocated to registers r7 
01D7            927   ;------------------------------------------------------------
01D7            928   ;        .\cmon51.c:240: void modifymem(unsigned char * ptr,  char loc)
01D7            929   ;        -----------------------------------------
01D7            930   ;         function modifymem
01D7            931   ;        -----------------------------------------
01D7            932   _modifymem:
01D7 8582A8     933            mov     _modifymem_ptr_1_120,dpl
01DA 8583A9     934            mov     (_modifymem_ptr_1_120 + 1),dph
01DD 85F0AA     935            mov     (_modifymem_ptr_1_120 + 2),b
01E0            936   ;        .\cmon51.c:244: get_txbuff();
01E0 120000     937            lcall   _get_txbuff
01E3            938   ;        .\cmon51.c:245: while(1)
01E3 7449       939            mov     a,#0x49
01E5 B51858     940            cjne    a,_modifymem_PARM_2,L013056?
01E8 7401       941            mov     a,#0x01
01EA 8000       942            sjmp    L013057?
01EC            943   L013056?:
01EC E4         944            clr     a
01ED            945   L013057?:
01ED FD         946            mov     r5,a
01EE 7444       947            mov     a,#0x44
01F0 B518D8     948            cjne    a,_modifymem_PARM_2,L013058?
01F3 7401       949            mov     a,#0x01
01F5 8000       950            sjmp    L013059?
01F7            951   L013058?:
01F7 E4         952            clr     a
01F8            953   L013059?:
01F8 FE         954            mov     r6,a
01F9            955   L013025?:
01F9            956   ;        .\cmon51.c:247: add_char_txbuff(loc);
01F9 851882     957            mov     dpl,_modifymem_PARM_2
01FC C005       958            push    ar5
01FE C006       959            push    ar6
0200 120000     960            lcall   _add_char_txbuff
0203            961   ;        .\cmon51.c:248: add_char_txbuff(':');
0203 75823A     962            mov     dpl,#0x3A
0206 120000     963            lcall   _add_char_txbuff
0209 D006       964            pop     ar6
020B D005       965            pop     ar5
020D            966   ;        .\cmon51.c:250: if((loc=='D')||(loc=='I'))
020D EE         967            mov     a,r6
020E 7000       968            jnz     L013001?
0210 ED         969            mov     a,r5
0211 6000       970            jz      L013002?
0213            971   L013001?:
0213            972   ;        .\cmon51.c:251: add_byte_txbuff((unsigned char)ptr);
0213 85A882     973            mov     dpl,_modifymem_ptr_1_120
0216 C005       974            push    ar5
0218 C006       975            push    ar6
021A 120000     976            lcall   _add_byte_txbuff
021D D006       977            pop     ar6
021F D005       978            pop     ar5
0221 8000       979            sjmp    L013003?
0223            980   L013002?:
0223            981   ;        .\cmon51.c:253: add_word_txbuff((unsigned int)ptr);
0223 85A882     982            mov     dpl,_modifymem_ptr_1_120
0226 85A983     983            mov     dph,(_modifymem_ptr_1_120 + 1)
0229 C005       984            push    ar5
022B C006       985            push    ar6
022D 120000     986            lcall   _add_word_txbuff
0230 D006       987            pop     ar6
0232 D005       988            pop     ar5
0234            989   L013003?:
0234            990   ;        .\cmon51.c:255: add_str_txbuff("=  ");
0234 909658     991            mov     dptr,#__str_0
0237 75F080     992            mov     b,#0x80
023A C005       993            push    ar5
023C C006       994            push    ar6
023E 120000     995            lcall   _add_str_txbuff
0241            996   ;        .\cmon51.c:256: flush_txbuff();
0241 120000     997            lcall   _flush_txbuff
0244 D006       998            pop     ar6
0246 D005       999            pop     ar5
0248           1000   ;        .\cmon51.c:259: if(P3_3==0)
0248 20B3D8    1001            jb      _P3_3,L013009?
024B           1002   ;        .\cmon51.c:261: fill_rxbuff(); // Using the serial port
024B C005      1003            push    ar5
024D C006      1004            push    ar6
024F 120000    1005            lcall   _fill_rxbuff
0252 D006      1006            pop     ar6
0254 D005      1007            pop     ar5
0256 8000      1008            sjmp    L013010?
0258           1009   L013009?:
0258           1010   ;        .\cmon51.c:265: j=rxcount;
0258 9080FF    1011            mov     dptr,#_rxcount
025B E0        1012            movx    a,@dptr
025C FF        1013            mov     r7,a
025D           1014   ;        .\cmon51.c:266: while(rxcount==j);
025D           1015   L013005?:
025D 9080FF    1016            mov     dptr,#_rxcount
0260 E0        1017            movx    a,@dptr
0261 F8        1018            mov     r0,a
0262 B50798    1019            cjne    a,ar7,L013063?
0265 8000      1020            sjmp    L013005?
0267           1021   L013063?:
0267           1022   L013010?:
0267           1023   ;        .\cmon51.c:268: if( (!isxdigit(rxbuff[0])) || (!isxdigit(rxbuff[1])) )
0267 908000    1024            mov     dptr,#_rxbuff
026A E0        1025            movx    a,@dptr
026B F582      1026            mov     dpl,a
026D C005      1027            push    ar5
026F C006      1028            push    ar6
0271 120000    1029            lcall   _isxdigit
0274 E582      1030            mov     a,dpl
0276 D006      1031            pop     ar6
0278 D005      1032            pop     ar5
027A 6000      1033            jz      L013020?
027C 908001    1034            mov     dptr,#(_rxbuff + 0x0001)
027F E0        1035            movx    a,@dptr
0280 F582      1036            mov     dpl,a
0282 C005      1037            push    ar5
0284 C006      1038            push    ar6
0286 120000    1039            lcall   _isxdigit
0289 E582      1040            mov     a,dpl
028B D006      1041            pop     ar6
028D D005      1042            pop     ar5
028F 7000      1043            jnz     L013055?
0291           1044   L013020?:
0291           1045   ;        .\cmon51.c:270: if (rxbuff[0]=='\'')
0291 908000    1046            mov     dptr,#_rxbuff
0294 E0        1047            movx    a,@dptr
0295 FF        1048            mov     r7,a
0296 BF2798    1049            cjne    r7,#0x27,L013015?
0299           1050   ;        .\cmon51.c:272: for(j=1; (rxbuff[j]!=0) && (rxbuff[j]!='\''); j++) (*ptr++)=rxbuff[j];
0299 AFA8      1051            mov     r7,_modifymem_ptr_1_120
029B A8A9      1052            mov     r0,(_modifymem_ptr_1_120 + 1)
029D A9AA      1053            mov     r1,(_modifymem_ptr_1_120 + 2)
029F 7A01      1054            mov     r2,#0x01
02A1           1055   L013028?:
02A1 8A82      1056            mov     dpl,r2
02A3 758380    1057            mov     dph,#(_rxbuff >> 8)
02A6 E0        1058            movx    a,@dptr
02A7 FB        1059            mov     r3,a
02A8 BB0018    1060            cjne    r3,#0x00,L013068?
02AB 020000    1061            ljmp    L013025?
02AE           1062   L013068?:
02AE 8A82      1063            mov     dpl,r2
02B0 758380    1064            mov     dph,#(_rxbuff >> 8)
02B3 E0        1065            movx    a,@dptr
02B4 FB        1066            mov     r3,a
02B5 BB2758    1067            cjne    r3,#0x27,L013069?
02B8 020000    1068            ljmp    L013025?
02BB           1069   L013069?:
02BB 8A82      1070            mov     dpl,r2
02BD 758380    1071            mov     dph,#(_rxbuff >> 8)
02C0 E0        1072            movx    a,@dptr
02C1 FB        1073            mov     r3,a
02C2 8F82      1074            mov     dpl,r7
02C4 8883      1075            mov     dph,r0
02C6 89F0      1076            mov     b,r1
02C8 120000    1077            lcall   __gptrput
02CB A3        1078            inc     dptr
02CC AF82      1079            mov     r7,dpl
02CE A883      1080            mov     r0,dph
02D0 8FA8      1081            mov     _modifymem_ptr_1_120,r7
02D2 88A9      1082            mov     (_modifymem_ptr_1_120 + 1),r0
02D4 89AA      1083            mov     (_modifymem_ptr_1_120 + 2),r1
02D6 0A        1084            inc     r2
02D7 8000      1085            sjmp    L013028?
02D9           1086   L013015?:
02D9           1087   ;        .\cmon51.c:274: else if (toupper(rxbuff[0])!='S')
02D9 908000    1088            mov     dptr,#_rxbuff
02DC E0        1089            movx    a,@dptr
02DD F582      1090            mov     dpl,a
02DF C005      1091            push    ar5
02E1 C006      1092            push    ar6
02E3 120000    1093            lcall   _toupper
02E6 AA82      1094            mov     r2,dpl
02E8 D006      1095            pop     ar6
02EA D005      1096            pop     ar5
02EC BA5398    1097            cjne    r2,#0x53,L013070?
02EF 8000      1098            sjmp    L013071?
02F1           1099   L013070?:
02F1 020000    1100            ljmp    L013026?
02F4           1101   L013071?:
02F4           1102   ;        .\cmon51.c:278: else ptr++;
02F4 05A8      1103            inc     _modifymem_ptr_1_120
02F6 E4        1104            clr     a
02F7 B5A858    1105            cjne    a,_modifymem_ptr_1_120,L013072?
02FA 05A9      1106            inc     (_modifymem_ptr_1_120 + 1)
02FC           1107   L013072?:
02FC 020000    1108            ljmp    L013025?
02FF           1109   ;        .\cmon51.c:282: for(j=0; (rxbuff[j]!=0) && (rxbuff[j+1]!=0) && (rxbuff[j+2]!=0) ; j+=3)
02FF           1110   L013055?:
02FF AAA8      1111            mov     r2,_modifymem_ptr_1_120
0301 ABA9      1112            mov     r3,(_modifymem_ptr_1_120 + 1)
0303 ACAA      1113            mov     r4,(_modifymem_ptr_1_120 + 2)
0305 7F00      1114            mov     r7,#0x00
0307           1115   L013034?:
0307 8F82      1116            mov     dpl,r7
0309 758380    1117            mov     dph,#(_rxbuff >> 8)
030C E0        1118            movx    a,@dptr
030D F8        1119            mov     r0,a
030E B800D8    1120            cjne    r0,#0x00,L013073?
0311 020000    1121            ljmp    L013025?
0314           1122   L013073?:
0314 EF        1123            mov     a,r7
0315 04        1124            inc     a
0316 2400      1125            add     a,#_rxbuff
0318 F582      1126            mov     dpl,a
031A E4        1127            clr     a
031B 3480      1128            addc    a,#(_rxbuff >> 8)
031D F583      1129            mov     dph,a
031F E0        1130            movx    a,@dptr
0320 F8        1131            mov     r0,a
0321 B80018    1132            cjne    r0,#0x00,L013074?
0324 020000    1133            ljmp    L013025?
0327           1134   L013074?:
0327 7402      1135            mov     a,#0x02
0329 2F        1136            add     a,r7
032A 2400      1137            add     a,#_rxbuff
032C F582      1138            mov     dpl,a
032E E4        1139            clr     a
032F 3480      1140            addc    a,#(_rxbuff >> 8)
0331 F583      1141            mov     dph,a
0333 E0        1142            movx    a,@dptr
0334 F8        1143            mov     r0,a
0335 B80058    1144            cjne    r0,#0x00,L013075?
0338 020000    1145            ljmp    L013025?
033B           1146   L013075?:
033B           1147   ;        .\cmon51.c:284: if( (isxdigit(rxbuff[j])) && (isxdigit(rxbuff[j+1])) )
033B 8F82      1148            mov     dpl,r7
033D 758380    1149            mov     dph,#(_rxbuff >> 8)
0340 E0        1150            movx    a,@dptr
0341 F582      1151            mov     dpl,a
0343 C002      1152            push    ar2
0345 C003      1153            push    ar3
0347 C004      1154            push    ar4
0349 C005      1155            push    ar5
034B C006      1156            push    ar6
034D C007      1157            push    ar7
034F 120000    1158            lcall   _isxdigit
0352 E582      1159            mov     a,dpl
0354 D007      1160            pop     ar7
0356 D006      1161            pop     ar6
0358 D005      1162            pop     ar5
035A D004      1163            pop     ar4
035C D003      1164            pop     ar3
035E D002      1165            pop     ar2
0360 7000      1166            jnz     L013076?
0362 020000    1167            ljmp    L013036?
0365           1168   L013076?:
0365 EF        1169            mov     a,r7
0366 04        1170            inc     a
0367 2400      1171            add     a,#_rxbuff
0369 F582      1172            mov     dpl,a
036B E4        1173            clr     a
036C 3480      1174            addc    a,#(_rxbuff >> 8)
036E F583      1175            mov     dph,a
0370 E0        1176            movx    a,@dptr
0371 F582      1177            mov     dpl,a
0373 C002      1178            push    ar2
0375 C003      1179            push    ar3
0377 C004      1180            push    ar4
0379 C005      1181            push    ar5
037B C006      1182            push    ar6
037D C007      1183            push    ar7
037F 120000    1184            lcall   _isxdigit
0382 E582      1185            mov     a,dpl
0384 D007      1186            pop     ar7
0386 D006      1187            pop     ar6
0388 D005      1188            pop     ar5
038A D004      1189            pop     ar4
038C D003      1190            pop     ar3
038E D002      1191            pop     ar2
0390 6000      1192            jz      L013036?
0392           1193   ;        .\cmon51.c:286: (*ptr++)=chartohex(rxbuff[j])*0x10+chartohex(rxbuff[j+1]);
0392 8F82      1194            mov     dpl,r7
0394 758380    1195            mov     dph,#(_rxbuff >> 8)
0397 E0        1196            movx    a,@dptr
0398 F582      1197            mov     dpl,a
039A C002      1198            push    ar2
039C C003      1199            push    ar3
039E C004      1200            push    ar4
03A0 C005      1201            push    ar5
03A2 C006      1202            push    ar6
03A4 C007      1203            push    ar7
03A6 120000    1204            lcall   _chartohex
03A9 A882      1205            mov     r0,dpl
03AB D007      1206            pop     ar7
03AD E8        1207            mov     a,r0
03AE C4        1208            swap    a
03AF 54F0      1209            anl     a,#0xf0
03B1 F8        1210            mov     r0,a
03B2 EF        1211            mov     a,r7
03B3 04        1212            inc     a
03B4 2400      1213            add     a,#_rxbuff
03B6 F582      1214            mov     dpl,a
03B8 E4        1215            clr     a
03B9 3480      1216            addc    a,#(_rxbuff >> 8)
03BB F583      1217            mov     dph,a
03BD E0        1218            movx    a,@dptr
03BE F582      1219            mov     dpl,a
03C0 C007      1220            push    ar7
03C2 C000      1221            push    ar0
03C4 120000    1222            lcall   _chartohex
03C7 A982      1223            mov     r1,dpl
03C9 D000      1224            pop     ar0
03CB D007      1225            pop     ar7
03CD D006      1226            pop     ar6
03CF D005      1227            pop     ar5
03D1 D004      1228            pop     ar4
03D3 D003      1229            pop     ar3
03D5 D002      1230            pop     ar2
03D7 E9        1231            mov     a,r1
03D8 28        1232            add     a,r0
03D9 F8        1233            mov     r0,a
03DA 8A82      1234            mov     dpl,r2
03DC 8B83      1235            mov     dph,r3
03DE 8CF0      1236            mov     b,r4
03E0 120000    1237            lcall   __gptrput
03E3 A3        1238            inc     dptr
03E4 AA82      1239            mov     r2,dpl
03E6 AB83      1240            mov     r3,dph
03E8 8AA8      1241            mov     _modifymem_ptr_1_120,r2
03EA 8BA9      1242            mov     (_modifymem_ptr_1_120 + 1),r3
03EC 8CAA      1243            mov     (_modifymem_ptr_1_120 + 2),r4
03EE           1244   L013036?:
03EE           1245   ;        .\cmon51.c:282: for(j=0; (rxbuff[j]!=0) && (rxbuff[j+1]!=0) && (rxbuff[j+2]!=0) ; j+=3)
03EE 0F        1246            inc     r7
03EF 0F        1247            inc     r7
03F0 0F        1248            inc     r7
03F1 020000    1249            ljmp    L013034?
03F4           1250   L013026?:
03F4           1251   ;        .\cmon51.c:291: add_nlcursor_txbuff();
03F4 120000    1252            lcall   _add_nlcursor_txbuff
03F7           1253   ;        .\cmon51.c:292: flush_txbuff();
03F7 020000    1254            ljmp    _flush_txbuff
03FA           1255   ;------------------------------------------------------------
03FA           1256   ;Allocation info for local variables in function 'dispmem'
03FA           1257   ;------------------------------------------------------------
03FA           1258   ;len                       Allocated with name '_dispmem_PARM_2'
03FA           1259   ;loc                       Allocated with name '_dispmem_PARM_3'
03FA           1260   ;begin                     Allocated with name '_dispmem_begin_1_131'
03FA           1261   ;j                         Allocated with name '_dispmem_j_1_132'
03FA           1262   ;n                         Allocated to registers r3 
03FA           1263   ;i                         Allocated to registers r2 
03FA           1264   ;k                         Allocated to registers 
03FA           1265   ;------------------------------------------------------------
03FA           1266   ;        .\cmon51.c:296: void dispmem(unsigned char * begin,  unsigned int len, char loc)
03FA           1267   ;        -----------------------------------------
03FA           1268   ;         function dispmem
03FA           1269   ;        -----------------------------------------
03FA           1270   _dispmem:
03FA 8582F8    1271            mov     _dispmem_begin_1_131,dpl
03FD 8583F9    1272            mov     (_dispmem_begin_1_131 + 1),dph
0400 85F0FA    1273            mov     (_dispmem_begin_1_131 + 2),b
0403           1274   ;        .\cmon51.c:301: get_txbuff();
0403 120000    1275            lcall   _get_txbuff
0406           1276   ;        .\cmon51.c:303: if(len==0) len=0x80;
0406 E5C8      1277            mov     a,_dispmem_PARM_2
0408 45C9      1278            orl     a,(_dispmem_PARM_2 + 1)
040A 7000      1279            jnz     L014002?
040C 75C880    1280            mov     _dispmem_PARM_2,#0x80
040F E4        1281            clr     a
0410 F5C9      1282            mov     (_dispmem_PARM_2 + 1),a
0412           1283   L014002?:
0412           1284   ;        .\cmon51.c:305: buff[16]=0;
0412 75A800    1285            mov     (_buff + 0x0010),#0x00
0415           1286   ;        .\cmon51.c:307: for(j=0; j<len; j++)
0415 7449      1287            mov     a,#0x49
0417 B58858    1288            cjne    a,_dispmem_PARM_3,L014038?
041A 7401      1289            mov     a,#0x01
041C 8000      1290            sjmp    L014039?
041E           1291   L014038?:
041E E4        1292            clr     a
041F           1293   L014039?:
041F FD        1294            mov     r5,a
0420 7444      1295            mov     a,#0x44
0422 B588D8    1296            cjne    a,_dispmem_PARM_3,L014040?
0425 7401      1297            mov     a,#0x01
0427 8000      1298            sjmp    L014041?
0429           1299   L014040?:
0429 E4        1300            clr     a
042A           1301   L014041?:
042A FE        1302            mov     r6,a
042B E4        1303            clr     a
042C F548      1304            mov     _dispmem_j_1_132,a
042E F549      1305            mov     (_dispmem_j_1_132 + 1),a
0430           1306   L014018?:
0430 C3        1307            clr     c
0431 E548      1308            mov     a,_dispmem_j_1_132
0433 95C8      1309            subb    a,_dispmem_PARM_2
0435 E549      1310            mov     a,(_dispmem_j_1_132 + 1)
0437 95C9      1311            subb    a,(_dispmem_PARM_2 + 1)
0439 4000      1312            jc      L014042?
043B 020000    1313            ljmp    L014021?
043E           1314   L014042?:
043E           1315   ;        .\cmon51.c:309: if(loc=='I')
043E ED        1316            mov     a,r5
043F 6000      1317            jz      L014004?
0441           1318   ;        .\cmon51.c:311: n=*(idata unsigned char *)((unsigned char)begin+j);
0441 ABF8      1319            mov     r3,_dispmem_begin_1_131
0443 7C00      1320            mov     r4,#0x00
0445 E548      1321            mov     a,_dispmem_j_1_132
0447 2B        1322            add     a,r3
0448 FB        1323            mov     r3,a
0449 E549      1324            mov     a,(_dispmem_j_1_132 + 1)
044B 3C        1325            addc    a,r4
044C FC        1326            mov     r4,a
044D 8B00      1327            mov     ar0,r3
044F 8603      1328            mov     ar3,@r0
0451 8000      1329            sjmp    L014005?
0453           1330   L014004?:
0453           1331   ;        .\cmon51.c:315: n=begin[j];
0453 E548      1332            mov     a,_dispmem_j_1_132
0455 25F8      1333            add     a,_dispmem_begin_1_131
0457 FC        1334            mov     r4,a
0458 E549      1335            mov     a,(_dispmem_j_1_132 + 1)
045A 35F9      1336            addc    a,(_dispmem_begin_1_131 + 1)
045C FA        1337            mov     r2,a
045D AFFA      1338            mov     r7,(_dispmem_begin_1_131 + 2)
045F 8C82      1339            mov     dpl,r4
0461 8A83      1340            mov     dph,r2
0463 8FF0      1341            mov     b,r7
0465 120000    1342            lcall   __gptrget
0468 FB        1343            mov     r3,a
0469           1344   L014005?:
0469           1345   ;        .\cmon51.c:317: i=j&0xf;
0469 740F      1346            mov     a,#0x0F
046B 5548      1347            anl     a,_dispmem_j_1_132
046D           1348   ;        .\cmon51.c:319: if(i==0) 
046D FA        1349            mov     r2,a
046E 7C00      1350            mov     r4,#0x00
0470 7000      1351            jnz     L014011?
0472           1352   ;        .\cmon51.c:321: add_char_txbuff(loc);  //A letter to indicate Data, Xram, Code, Idata
0472 858882    1353            mov     dpl,_dispmem_PARM_3
0475 C002      1354            push    ar2
0477 C003      1355            push    ar3
0479 C005      1356            push    ar5
047B C006      1357            push    ar6
047D 120000    1358            lcall   _add_char_txbuff
0480           1359   ;        .\cmon51.c:322: add_char_txbuff(':');
0480 75823A    1360            mov     dpl,#0x3A
0483 120000    1361            lcall   _add_char_txbuff
0486 D006      1362            pop     ar6
0488 D005      1363            pop     ar5
048A D003      1364            pop     ar3
048C D002      1365            pop     ar2
048E           1366   ;        .\cmon51.c:323: if((loc=='D')||(loc=='I'))
048E EE        1367            mov     a,r6
048F 7000      1368            jnz     L014006?
0491 ED        1369            mov     a,r5
0492 6000      1370            jz      L014007?
0494           1371   L014006?:
0494           1372   ;        .\cmon51.c:324: add_byte_txbuff((unsigned char)begin+j);
0494 ACF8      1373            mov     r4,_dispmem_begin_1_131
0496 E548      1374            mov     a,_dispmem_j_1_132
0498 2C        1375            add     a,r4
0499 F582      1376            mov     dpl,a
049B C002      1377            push    ar2
049D C003      1378            push    ar3
049F C005      1379            push    ar5
04A1 C006      1380            push    ar6
04A3 120000    1381            lcall   _add_byte_txbuff
04A6 D006      1382            pop     ar6
04A8 D005      1383            pop     ar5
04AA D003      1384            pop     ar3
04AC D002      1385            pop     ar2
04AE 8000      1386            sjmp    L014008?
04B0           1387   L014007?:
04B0           1388   ;        .\cmon51.c:326: add_word_txbuff((unsigned int)begin+j);
04B0 ACF8      1389            mov     r4,_dispmem_begin_1_131
04B2 AFF9      1390            mov     r7,(_dispmem_begin_1_131 + 1)
04B4 E548      1391            mov     a,_dispmem_j_1_132
04B6 2C        1392            add     a,r4
04B7 F582      1393            mov     dpl,a
04B9 E549      1394            mov     a,(_dispmem_j_1_132 + 1)
04BB 3F        1395            addc    a,r7
04BC F583      1396            mov     dph,a
04BE C002      1397            push    ar2
04C0 C003      1398            push    ar3
04C2 C005      1399            push    ar5
04C4 C006      1400            push    ar6
04C6 120000    1401            lcall   _add_word_txbuff
04C9 D006      1402            pop     ar6
04CB D005      1403            pop     ar5
04CD D003      1404            pop     ar3
04CF D002      1405            pop     ar2
04D1           1406   L014008?:
04D1           1407   ;        .\cmon51.c:327: add_str_txbuff(":  ");
04D1 909F98    1408            mov     dptr,#__str_1
04D4 75F080    1409            mov     b,#0x80
04D7 C002      1410            push    ar2
04D9 C003      1411            push    ar3
04DB C005      1412            push    ar5
04DD C006      1413            push    ar6
04DF 120000    1414            lcall   _add_str_txbuff
04E2 D006      1415            pop     ar6
04E4 D005      1416            pop     ar5
04E6 D003      1417            pop     ar3
04E8 D002      1418            pop     ar2
04EA           1419   L014011?:
04EA           1420   ;        .\cmon51.c:329: add_byte_txbuff(n);
04EA 8B82      1421            mov     dpl,r3
04EC C002      1422            push    ar2
04EE C003      1423            push    ar3
04F0 C005      1424            push    ar5
04F2 C006      1425            push    ar6
04F4 120000    1426            lcall   _add_byte_txbuff
04F7 D006      1427            pop     ar6
04F9 D005      1428            pop     ar5
04FB D003      1429            pop     ar3
04FD D002      1430            pop     ar2
04FF           1431   ;        .\cmon51.c:330: add_char_txbuff(i==7?'-':' '); //A middle separator like the old good DOS debug
04FF BA07D8    1432            cjne    r2,#0x07,L014024?
0502 7C2D      1433            mov     r4,#0x2D
0504 8000      1434            sjmp    L014025?
0506           1435   L014024?:
0506 7C20      1436            mov     r4,#0x20
0508           1437   L014025?:
0508 8C82      1438            mov     dpl,r4
050A C002      1439            push    ar2
050C C003      1440            push    ar3
050E C005      1441            push    ar5
0510 C006      1442            push    ar6
0512 120000    1443            lcall   _add_char_txbuff
0515 D006      1444            pop     ar6
0517 D005      1445            pop     ar5
0519 D003      1446            pop     ar3
051B D002      1447            pop     ar2
051D           1448   ;        .\cmon51.c:332: if((n>0x20)&&(n<0x7f))
051D EB        1449            mov     a,r3
051E 24DF      1450            add     a,#0xff - 0x20
0520 5000      1451            jnc     L014013?
0522 BB7F98    1452            cjne    r3,#0x7F,L014050?
0525           1453   L014050?:
0525 5000      1454            jnc     L014013?
0527           1455   ;        .\cmon51.c:333: buff[i]=n;
0527 EA        1456            mov     a,r2
0528 2498      1457            add     a,#_buff
052A F8        1458            mov     r0,a
052B A603      1459            mov     @r0,ar3
052D 8000      1460            sjmp    L014014?
052F           1461   L014013?:
052F           1462   ;        .\cmon51.c:335: buff[i]='.';
052F EA        1463            mov     a,r2
0530 2498      1464            add     a,#_buff
0532 F8        1465            mov     r0,a
0533 762E      1466            mov     @r0,#0x2E
0535           1467   L014014?:
0535           1468   ;        .\cmon51.c:337: if(i==0xf)
0535 BA0F18    1469            cjne    r2,#0x0F,L014020?
0538           1470   ;        .\cmon51.c:339: add_str_txbuff("   ");
0538 90A158    1471            mov     dptr,#__str_2
053B 75F080    1472            mov     b,#0x80
053E C005      1473            push    ar5
0540 C006      1474            push    ar6
0542 120000    1475            lcall   _add_str_txbuff
0545           1476   ;        .\cmon51.c:340: add_str_txbuff(buff);
0545 905198    1477            mov     dptr,#_buff
0548 75F040    1478            mov     b,#0x40
054B 120000    1479            lcall   _add_str_txbuff
054E           1480   ;        .\cmon51.c:341: add_char_txbuff('\r');
054E 75820D    1481            mov     dpl,#0x0D
0551 120000    1482            lcall   _add_char_txbuff
0554           1483   ;        .\cmon51.c:342: add_char_txbuff('\n');
0554 75820A    1484            mov     dpl,#0x0A
0557 120000    1485            lcall   _add_char_txbuff
055A           1486   ;        .\cmon51.c:343: update_txbuff();
055A 120000    1487            lcall   _update_txbuff
055D D006      1488            pop     ar6
055F D005      1489            pop     ar5
0561           1490   L014020?:
0561           1491   ;        .\cmon51.c:307: for(j=0; j<len; j++)
0561 0548      1492            inc     _dispmem_j_1_132
0563 E4        1493            clr     a
0564 B548D8    1494            cjne    a,_dispmem_j_1_132,L014054?
0567 0549      1495            inc     (_dispmem_j_1_132 + 1)
0569           1496   L014054?:
0569 020000    1497            ljmp    L014018?
056C           1498   L014021?:
056C           1499   ;        .\cmon51.c:346: add_nlcursor_txbuff();
056C 120000    1500            lcall   _add_nlcursor_txbuff
056F           1501   ;        .\cmon51.c:347: flush_txbuff();
056F 020000    1502            ljmp    _flush_txbuff
0572           1503   ;------------------------------------------------------------
0572           1504   ;Allocation info for local variables in function 'cleanbuff'
0572           1505   ;------------------------------------------------------------
0572           1506   ;j                         Allocated to registers r2 
0572           1507   ;k                         Allocated to registers r2 
0572           1508   ;------------------------------------------------------------
0572           1509   ;        .\cmon51.c:351: void cleanbuff (void)
0572           1510   ;        -----------------------------------------
0572           1511   ;         function cleanbuff
0572           1512   ;        -----------------------------------------
0572           1513   _cleanbuff:
0572           1514   ;        .\cmon51.c:355: buff_haseq=0;
0572 C2C8      1515            clr     _buff_haseq
0574           1516   ;        .\cmon51.c:356: buff_hasdot=0;
0574 C288      1517            clr     _buff_hasdot
0576           1518   ;        .\cmon51.c:359: for(j=0; j<BUFFSIZE; j++)
0576 7A00      1519            mov     r2,#0x00
0578           1520   L015013?:
0578 BA2058    1521            cjne    r2,#0x20,L015041?
057B           1522   L015041?:
057B 5000      1523            jnc     L015016?
057D           1524   ;        .\cmon51.c:361: buff[j]=toupper(buff[j]);
057D EA        1525            mov     a,r2
057E 2498      1526            add     a,#_buff
0580 F8        1527            mov     r0,a
0581 8682      1528            mov     dpl,@r0
0583 C002      1529            push    ar2
0585 C000      1530            push    ar0
0587 120000    1531            lcall   _toupper
058A E582      1532            mov     a,dpl
058C D000      1533            pop     ar0
058E D002      1534            pop     ar2
0590 F6        1535            mov     @r0,a
0591           1536   ;        .\cmon51.c:362: if(isspace(buff[j])) buff[j]=0;
0591 EA        1537            mov     a,r2
0592 2498      1538            add     a,#_buff
0594 F8        1539            mov     r0,a
0595 8682      1540            mov     dpl,@r0
0597 C002      1541            push    ar2
0599 120000    1542            lcall   _isspace
059C E582      1543            mov     a,dpl
059E D002      1544            pop     ar2
05A0 6000      1545            jz      L015002?
05A2 EA        1546            mov     a,r2
05A3 2498      1547            add     a,#_buff
05A5 F8        1548            mov     r0,a
05A6 7600      1549            mov     @r0,#0x00
05A8           1550   L015002?:
05A8           1551   ;        .\cmon51.c:363: if(buff[j]=='=')
05A8 EA        1552            mov     a,r2
05A9 2498      1553            add     a,#_buff
05AB F8        1554            mov     r0,a
05AC 8603      1555            mov     ar3,@r0
05AE BB3D58    1556            cjne    r3,#0x3D,L015007?
05B1           1557   ;        .\cmon51.c:365: buff[j]=0;
05B1 7600      1558            mov     @r0,#0x00
05B3           1559   ;        .\cmon51.c:366: buff_haseq=1;
05B3 D2C8      1560            setb    _buff_haseq
05B5 8000      1561            sjmp    L015015?
05B7           1562   L015007?:
05B7           1563   ;        .\cmon51.c:368: else if((buff[j]=='.')||(buff[j]=='_'))
05B7 8603      1564            mov     ar3,@r0
05B9 BB2ED8    1565            cjne    r3,#0x2E,L015046?
05BC 8000      1566            sjmp    L015003?
05BE           1567   L015046?:
05BE BB5F98    1568            cjne    r3,#0x5F,L015015?
05C1           1569   L015003?:
05C1           1570   ;        .\cmon51.c:370: buff[j]=0;
05C1 EA        1571            mov     a,r2
05C2 2498      1572            add     a,#_buff
05C4 F8        1573            mov     r0,a
05C5 7600      1574            mov     @r0,#0x00
05C7           1575   ;        .\cmon51.c:371: buff_hasdot=1;
05C7 D288      1576            setb    _buff_hasdot
05C9           1577   L015015?:
05C9           1578   ;        .\cmon51.c:359: for(j=0; j<BUFFSIZE; j++)
05C9 0A        1579            inc     r2
05CA 8000      1580            sjmp    L015013?
05CC           1581   L015016?:
05CC           1582   ;        .\cmon51.c:376: for(j=0, k=0; j<BUFFSIZE; j++)
05CC 7A00      1583            mov     r2,#0x00
05CE 7B00      1584            mov     r3,#0x00
05D0           1585   L015017?:
05D0 BB2098    1586            cjne    r3,#0x20,L015049?
05D3           1587   L015049?:
05D3 5000      1588            jnc     L015037?
05D5           1589   ;        .\cmon51.c:378: buff[k]=buff[j];
05D5 EA        1590            mov     a,r2
05D6 2498      1591            add     a,#_buff
05D8 F8        1592            mov     r0,a
05D9 EB        1593            mov     a,r3
05DA 2498      1594            add     a,#_buff
05DC F9        1595            mov     r1,a
05DD 8704      1596            mov     ar4,@r1
05DF A604      1597            mov     @r0,ar4
05E1           1598   ;        .\cmon51.c:379: if( ((buff[j]!=0)||(buff[j+1]!=0)) && buff[0]!=0) k++;
05E1 EC        1599            mov     a,r4
05E2 7000      1600            jnz     L015012?
05E4 EB        1601            mov     a,r3
05E5 04        1602            inc     a
05E6 2498      1603            add     a,#_buff
05E8 F8        1604            mov     r0,a
05E9 E6        1605            mov     a,@r0
05EA 6000      1606            jz      L015019?
05EC           1607   L015012?:
05EC E598      1608            mov     a,_buff
05EE 6000      1609            jz      L015019?
05F0 0A        1610            inc     r2
05F1           1611   L015019?:
05F1           1612   ;        .\cmon51.c:376: for(j=0, k=0; j<BUFFSIZE; j++)
05F1 0B        1613            inc     r3
05F2 8000      1614            sjmp    L015017?
05F4           1615   L015037?:
05F4           1616   L015021?:
05F4           1617   ;        .\cmon51.c:381: for(; k<BUFFSIZE; k++) buff[k]=0;
05F4 BA20D8    1618            cjne    r2,#0x20,L015054?
05F7           1619   L015054?:
05F7 5000      1620            jnc     L015025?
05F9 EA        1621            mov     a,r2
05FA 2498      1622            add     a,#_buff
05FC F8        1623            mov     r0,a
05FD 7600      1624            mov     @r0,#0x00
05FF 0A        1625            inc     r2
0600 8000      1626            sjmp    L015021?
0602           1627   L015025?:
0602 22        1628            ret
0603           1629   ;------------------------------------------------------------
0603           1630   ;Allocation info for local variables in function 'getwordn'
0603           1631   ;------------------------------------------------------------
0603           1632   ;word                      Allocated to registers r2 r3 
0603           1633   ;------------------------------------------------------------
0603           1634   ;        .\cmon51.c:385: unsigned int getwordn(void)
0603           1635   ;        -----------------------------------------
0603           1636   ;         function getwordn
0603           1637   ;        -----------------------------------------
0603           1638   _getwordn:
0603           1639   ;        .\cmon51.c:387: unsigned int word=0;
0603 7A00      1640            mov     r2,#0x00
0605 7B00      1641            mov     r3,#0x00
0607           1642   ;        .\cmon51.c:394: cursor++;
0607           1643   L016003?:
0607           1644   ;        .\cmon51.c:389: for( ; buff[cursor]!=0; cursor++)
0607 E558      1645            mov     a,_cursor
0609 2498      1646            add     a,#_buff
060B F8        1647            mov     r0,a
060C 8604      1648            mov     ar4,@r0
060E BC0098    1649            cjne    r4,#0x00,L016012?
0611 8000      1650            sjmp    L016006?
0613           1651   L016012?:
0613           1652   ;        .\cmon51.c:391: if(isxdigit(buff[cursor]))
0613 8C82      1653            mov     dpl,r4
0615 C002      1654            push    ar2
0617 C003      1655            push    ar3
0619 120000    1656            lcall   _isxdigit
061C E582      1657            mov     a,dpl
061E D003      1658            pop     ar3
0620 D002      1659            pop     ar2
0622 6000      1660            jz      L016005?
0624           1661   ;        .\cmon51.c:392: word=(word*0x10)+chartohex(buff[cursor]);
0624 8A04      1662            mov     ar4,r2
0626 EB        1663            mov     a,r3
0627 C4        1664            swap    a
0628 54F0      1665            anl     a,#0xf0
062A CC        1666            xch     a,r4
062B C4        1667            swap    a
062C CC        1668            xch     a,r4
062D 6C        1669            xrl     a,r4
062E CC        1670            xch     a,r4
062F 54F0      1671            anl     a,#0xf0
0631 CC        1672            xch     a,r4
0632 6C        1673            xrl     a,r4
0633 FD        1674            mov     r5,a
0634 E558      1675            mov     a,_cursor
0636 2498      1676            add     a,#_buff
0638 F8        1677            mov     r0,a
0639 8682      1678            mov     dpl,@r0
063B C004      1679            push    ar4
063D C005      1680            push    ar5
063F 120000    1681            lcall   _chartohex
0642 AE82      1682            mov     r6,dpl
0644 D005      1683            pop     ar5
0646 D004      1684            pop     ar4
0648 7F00      1685            mov     r7,#0x00
064A EE        1686            mov     a,r6
064B 2C        1687            add     a,r4
064C FA        1688            mov     r2,a
064D EF        1689            mov     a,r7
064E 3D        1690            addc    a,r5
064F FB        1691            mov     r3,a
0650           1692   L016005?:
0650           1693   ;        .\cmon51.c:389: for( ; buff[cursor]!=0; cursor++)
0650 0558      1694            inc     _cursor
0652 8000      1695            sjmp    L016003?
0654           1696   L016006?:
0654           1697   ;        .\cmon51.c:394: cursor++;
0654 0558      1698            inc     _cursor
0656           1699   ;        .\cmon51.c:395: return word;
0656 8A82      1700            mov     dpl,r2
0658 8B83      1701            mov     dph,r3
065A 22        1702            ret
065B           1703   ;------------------------------------------------------------
065B           1704   ;Allocation info for local variables in function 'add_byte_buff'
065B           1705   ;------------------------------------------------------------
065B           1706   ;loc                       Allocated with name '_add_byte_buff_PARM_2'
065B           1707   ;val                       Allocated to registers r2 
065B           1708   ;------------------------------------------------------------
065B           1709   ;        .\cmon51.c:398: void add_byte_buff(unsigned char val, unsigned char loc)
065B           1710   ;        -----------------------------------------
065B           1711   ;         function add_byte_buff
065B           1712   ;        -----------------------------------------
065B           1713   _add_byte_buff:
065B AA82      1714            mov     r2,dpl
065D           1715   ;        .\cmon51.c:400: txbuff[loc]=  hexval[val/0x10];
065D AB60      1716            mov     r3,_add_byte_buff_PARM_2
065F 7C81      1717            mov     r4,#(_txbuff >> 8)
0661 EA        1718            mov     a,r2
0662 C4        1719            swap    a
0663 540F      1720            anl     a,#0x0f
0665 901360    1721            mov     dptr,#_hexval
0668 93        1722            movc    a,@a+dptr
0669 FD        1723            mov     r5,a
066A 8B82      1724            mov     dpl,r3
066C 8C83      1725            mov     dph,r4
066E F0        1726            movx    @dptr,a
066F           1727   ;        .\cmon51.c:401: txbuff[loc+1]=hexval[val&0x0f];
066F AB60      1728            mov     r3,_add_byte_buff_PARM_2
0671 7C00      1729            mov     r4,#0x00
0673 0B        1730            inc     r3
0674 BB0058    1731            cjne    r3,#0x00,L017003?
0677 0C        1732            inc     r4
0678           1733   L017003?:
0678 7481      1734            mov     a,#(_txbuff >> 8)
067A 2C        1735            add     a,r4
067B FC        1736            mov     r4,a
067C 740F      1737            mov     a,#0x0F
067E 5A        1738            anl     a,r2
067F 901360    1739            mov     dptr,#_hexval
0682 93        1740            movc    a,@a+dptr
0683 8B82      1741            mov     dpl,r3
0685 8C83      1742            mov     dph,r4
0687 F0        1743            movx    @dptr,a
0688 22        1744            ret
0689           1745   ;------------------------------------------------------------
0689           1746   ;Allocation info for local variables in function 'disp_regs'
0689           1747   ;------------------------------------------------------------
0689           1748   ;j                         Allocated to registers r4 
0689           1749   ;bank                      Allocated to registers r2 
0689           1750   ;------------------------------------------------------------
0689           1751   ;        .\cmon51.c:412: void disp_regs(void)
0689           1752   ;        -----------------------------------------
0689           1753   ;         function disp_regs
0689           1754   ;        -----------------------------------------
0689           1755   _disp_regs:
0689           1756   ;        .\cmon51.c:416: get_txbuff();
0689 120000    1757            lcall   _get_txbuff
068C           1758   ;        .\cmon51.c:417: add_str_txbuff(regframe);
068C 901220    1759            mov     dptr,#_regframe
068F 75F080    1760            mov     b,#0x80
0692 120000    1761            lcall   _add_str_txbuff
0695           1762   ;        .\cmon51.c:419: add_byte_buff(A_save,   3);
0695 904E88    1763            mov     dptr,#_A_save
0698 E0        1764            movx    a,@dptr
0699 FA        1765            mov     r2,a
069A 756003    1766            mov     _add_byte_buff_PARM_2,#0x03
069D 8A82      1767            mov     dpl,r2
069F 120000    1768            lcall   _add_byte_buff
06A2           1769   ;        .\cmon51.c:420: add_byte_buff(B_save,   10);
06A2 904E08    1770            mov     dptr,#_B_save
06A5 E0        1771            movx    a,@dptr
06A6 FA        1772            mov     r2,a
06A7 75600A    1773            mov     _add_byte_buff_PARM_2,#0x0A
06AA 8A82      1774            mov     dpl,r2
06AC 120000    1775            lcall   _add_byte_buff
06AF           1776   ;        .\cmon51.c:421: add_byte_buff(SP_save,  17);
06AF 904D08    1777            mov     dptr,#_SP_save
06B2 E0        1778            movx    a,@dptr
06B3 FA        1779            mov     r2,a
06B4 756011    1780            mov     _add_byte_buff_PARM_2,#0x11
06B7 8A82      1781            mov     dpl,r2
06B9 120000    1782            lcall   _add_byte_buff
06BC           1783   ;        .\cmon51.c:422: add_byte_buff(IE_save,  24);
06BC 904DC8    1784            mov     dptr,#_IE_save
06BF E0        1785            movx    a,@dptr
06C0 FA        1786            mov     r2,a
06C1 756018    1787            mov     _add_byte_buff_PARM_2,#0x18
06C4 8A82      1788            mov     dpl,r2
06C6 120000    1789            lcall   _add_byte_buff
06C9           1790   ;        .\cmon51.c:423: add_byte_buff(DPH_save, 32);
06C9 904D48    1791            mov     dptr,#_DPH_save
06CC E0        1792            movx    a,@dptr
06CD FA        1793            mov     r2,a
06CE A3        1794            inc     dptr
06CF E0        1795            movx    a,@dptr
06D0 8A82      1796            mov     dpl,r2
06D2 756020    1797            mov     _add_byte_buff_PARM_2,#0x20
06D5 120000    1798            lcall   _add_byte_buff
06D8           1799   ;        .\cmon51.c:424: add_byte_buff(DPL_save, 39);
06D8 904D88    1800            mov     dptr,#_DPL_save
06DB E0        1801            movx    a,@dptr
06DC FA        1802            mov     r2,a
06DD A3        1803            inc     dptr
06DE E0        1804            movx    a,@dptr
06DF 8A82      1805            mov     dpl,r2
06E1 756027    1806            mov     _add_byte_buff_PARM_2,#0x27
06E4 120000    1807            lcall   _add_byte_buff
06E7           1808   ;        .\cmon51.c:425: add_byte_buff(PSW_save, 46);
06E7 904E48    1809            mov     dptr,#_PSW_save
06EA E0        1810            movx    a,@dptr
06EB FA        1811            mov     r2,a
06EC 75602E    1812            mov     _add_byte_buff_PARM_2,#0x2E
06EF 8A82      1813            mov     dpl,r2
06F1 120000    1814            lcall   _add_byte_buff
06F4           1815   ;        .\cmon51.c:426: add_byte_buff((PC_save/0x100), 52);
06F4 904C48    1816            mov     dptr,#_PC_save
06F7 E0        1817            movx    a,@dptr
06F8 A3        1818            inc     dptr
06F9 E0        1819            movx    a,@dptr
06FA F582      1820            mov     dpl,a
06FC 756034    1821            mov     _add_byte_buff_PARM_2,#0x34
06FF 120000    1822            lcall   _add_byte_buff
0702           1823   ;        .\cmon51.c:427: add_byte_buff((PC_save%0x100), 54);
0702 904C48    1824            mov     dptr,#_PC_save
0705 E0        1825            movx    a,@dptr
0706 FA        1826            mov     r2,a
0707 A3        1827            inc     dptr
0708 E0        1828            movx    a,@dptr
0709 8A82      1829            mov     dpl,r2
070B 756036    1830            mov     _add_byte_buff_PARM_2,#0x36
070E 120000    1831            lcall   _add_byte_buff
0711           1832   ;        .\cmon51.c:429: bank=(PSW_save/0x8)&0x3;
0711 904E48    1833            mov     dptr,#_PSW_save
0714 E0        1834            movx    a,@dptr
0715 C4        1835            swap    a
0716 23        1836            rl      a
0717           1837   ;        .\cmon51.c:430: for(j=0; j<8; j++)
0717 5403      1838            anl     a,#(0x1f&0x03)
0719 FA        1839            mov     r2,a
071A C4        1840            swap    a
071B 03        1841            rr      a
071C 54F8      1842            anl     a,#0xf8
071E FB        1843            mov     r3,a
071F 7C00      1844            mov     r4,#0x00
0721           1845   L018001?:
0721 BC08D8    1846            cjne    r4,#0x08,L018010?
0724           1847   L018010?:
0724 5000      1848            jnc     L018004?
0726           1849   ;        .\cmon51.c:432: add_byte_buff(iram_save[j+bank*8], 58+3+(7*j));
0726 EB        1850            mov     a,r3
0727 2C        1851            add     a,r4
0728 2408      1852            add     a,#_iram_save
072A F582      1853            mov     dpl,a
072C E4        1854            clr     a
072D 344F      1855            addc    a,#(_iram_save >> 8)
072F F583      1856            mov     dph,a
0731 E0        1857            movx    a,@dptr
0732 FD        1858            mov     r5,a
0733 EC        1859            mov     a,r4
0734 75F007    1860            mov     b,#0x07
0737 A4        1861            mul     ab
0738 243D      1862            add     a,#0x3D
073A F560      1863            mov     _add_byte_buff_PARM_2,a
073C 8D82      1864            mov     dpl,r5
073E C002      1865            push    ar2
0740 C003      1866            push    ar3
0742 C004      1867            push    ar4
0744 120000    1868            lcall   _add_byte_buff
0747 D004      1869            pop     ar4
0749 D003      1870            pop     ar3
074B D002      1871            pop     ar2
074D           1872   ;        .\cmon51.c:430: for(j=0; j<8; j++)
074D 0C        1873            inc     r4
074E 8000      1874            sjmp    L018001?
0750           1875   L018004?:
0750           1876   ;        .\cmon51.c:434: txbuff[58+61]=('0'+bank);
0750 7430      1877            mov     a,#0x30
0752 2A        1878            add     a,r2
0753 908177    1879            mov     dptr,#(_txbuff + 0x0077)
0756 F0        1880            movx    @dptr,a
0757           1881   ;        .\cmon51.c:436: append_txbuff=1;
0757 D200      1882            setb    _append_txbuff
0759           1883   ;        .\cmon51.c:437: discnt=1;
0759 750001    1884            mov     _discnt,#0x01
075C E4        1885            clr     a
075D F501      1886            mov     (_discnt + 1),a
075F           1887   ;        .\cmon51.c:438: unassemble(PC_save); //The next assembly instruction...
075F 904C48    1888            mov     dptr,#_PC_save
0762 E0        1889            movx    a,@dptr
0763 FA        1890            mov     r2,a
0764 A3        1891            inc     dptr
0765 E0        1892            movx    a,@dptr
0766 FB        1893            mov     r3,a
0767 8A82      1894            mov     dpl,r2
0769 8B83      1895            mov     dph,r3
076B 120000    1896            lcall   _unassemble
076E           1897   ;        .\cmon51.c:439: append_txbuff=0;
076E C200      1898            clr     _append_txbuff
0770           1899   ;        .\cmon51.c:440: add_nlcursor_txbuff();
0770 120000    1900            lcall   _add_nlcursor_txbuff
0773           1901   ;        .\cmon51.c:441: flush_txbuff();
0773 020000    1902            ljmp    _flush_txbuff
0776           1903   ;------------------------------------------------------------
0776           1904   ;Allocation info for local variables in function 'nlist'
0776           1905   ;------------------------------------------------------------
0776           1906   ;slist                     Allocated to registers r2 r3 r4 
0776           1907   ;x                         Allocated to registers r5 
0776           1908   ;q                         Allocated with name '_nlist_q_1_153'
0776           1909   ;sloc0                     Allocated with name '_nlist_sloc0_1_0'
0776           1910   ;------------------------------------------------------------
0776           1911   ;        .\cmon51.c:444: unsigned char nlist (unsigned char * slist)
0776           1912   ;        -----------------------------------------
0776           1913   ;         function nlist
0776           1914   ;        -----------------------------------------
0776           1915   _nlist:
0776 AA82      1916            mov     r2,dpl
0778 AB83      1917            mov     r3,dph
077A ACF0      1918            mov     r4,b
077C           1919   ;        .\cmon51.c:446: unsigned char x=0xff, q;
077C 7DFF      1920            mov     r5,#0xFF
077E           1921   ;        .\cmon51.c:448: while(*slist)
077E           1922   L019006?:
077E 8A82      1923            mov     dpl,r2
0780 8B83      1924            mov     dph,r3
0782 8CF0      1925            mov     b,r4
0784 120000    1926            lcall   __gptrget
0787 FE        1927            mov     r6,a
0788 6000      1928            jz      L019008?
078A           1929   ;        .\cmon51.c:450: if((*slist)>0x7f)
078A EE        1930            mov     a,r6
078B 2480      1931            add     a,#0xff - 0x7F
078D 5000      1932            jnc     L019005?
078F           1933   ;        .\cmon51.c:452: x=*(slist++);
078F 8E05      1934            mov     ar5,r6
0791 0A        1935            inc     r2
0792 BA00D8    1936            cjne    r2,#0x00,L019029?
0795 0B        1937            inc     r3
0796           1938   L019029?:
0796           1939   ;        .\cmon51.c:453: for(q=0; (*slist<=0x7f) && (*slist==(unsigned char)buff[q]) ; q++) slist++;
0796 8AB8      1940            mov     _nlist_sloc0_1_0,r2
0798 8BB9      1941            mov     (_nlist_sloc0_1_0 + 1),r3
079A 8CBA      1942            mov     (_nlist_sloc0_1_0 + 2),r4
079C 756800    1943            mov     _nlist_q_1_153,#0x00
079F           1944   L019012?:
079F 85B882    1945            mov     dpl,_nlist_sloc0_1_0
07A2 85B983    1946            mov     dph,(_nlist_sloc0_1_0 + 1)
07A5 85BAF0    1947            mov     b,(_nlist_sloc0_1_0 + 2)
07A8 120000    1948            lcall   __gptrget
07AB FF        1949            mov  r7,a
07AC 2480      1950            add     a,#0xff - 0x7F
07AE 4000      1951            jc      L019026?
07B0 E568      1952            mov     a,_nlist_q_1_153
07B2 2498      1953            add     a,#_buff
07B4 F8        1954            mov     r0,a
07B5 8606      1955            mov     ar6,@r0
07B7 EF        1956            mov     a,r7
07B8 B50658    1957            cjne    a,ar6,L019026?
07BB 05B8      1958            inc     _nlist_sloc0_1_0
07BD E4        1959            clr     a
07BE B5B898    1960            cjne    a,_nlist_sloc0_1_0,L019033?
07C1 05B9      1961            inc     (_nlist_sloc0_1_0 + 1)
07C3           1962   L019033?:
07C3 0568      1963            inc     _nlist_q_1_153
07C5 8000      1964            sjmp    L019012?
07C7           1965   L019026?:
07C7 AAB8      1966            mov     r2,_nlist_sloc0_1_0
07C9 ABB9      1967            mov     r3,(_nlist_sloc0_1_0 + 1)
07CB ACBA      1968            mov     r4,(_nlist_sloc0_1_0 + 2)
07CD           1969   ;        .\cmon51.c:454: if((*slist>0x7f)&&(buff[q]==0)) break;
07CD 85B882    1970            mov     dpl,_nlist_sloc0_1_0
07D0 85B983    1971            mov     dph,(_nlist_sloc0_1_0 + 1)
07D3 85BAF0    1972            mov     b,(_nlist_sloc0_1_0 + 2)
07D6 120000    1973            lcall   __gptrget
07D9 FE        1974            mov  r6,a
07DA 2480      1975            add     a,#0xff - 0x7F
07DC 5000      1976            jnc     L019005?
07DE E568      1977            mov     a,_nlist_q_1_153
07E0 2498      1978            add     a,#_buff
07E2 F8        1979            mov     r0,a
07E3 E6        1980            mov     a,@r0
07E4 6000      1981            jz      L019008?
07E6           1982   L019005?:
07E6           1983   ;        .\cmon51.c:456: slist++;
07E6 0A        1984            inc     r2
07E7 BA0018    1985            cjne    r2,#0x00,L019006?
07EA 0B        1986            inc     r3
07EB 8000      1987            sjmp    L019006?
07ED           1988   L019008?:
07ED           1989   ;        .\cmon51.c:458: if(*slist) return x;//Found one!
07ED 8A82      1990            mov     dpl,r2
07EF 8B83      1991            mov     dph,r3
07F1 8CF0      1992            mov     b,r4
07F3 120000    1993            lcall   __gptrget
07F6 6000      1994            jz      L019010?
07F8 8D82      1995            mov     dpl,r5
07FA           1996   ;        .\cmon51.c:459: return 0xff; //What if a sfr is located at 0xff?
07FA 22        1997            ret
07FB           1998   L019010?:
07FB 7582FF    1999            mov     dpl,#0xFF
07FE 22        2000            ret
07FF           2001   ;------------------------------------------------------------
07FF           2002   ;Allocation info for local variables in function 'breakorstep'
07FF           2003   ;------------------------------------------------------------
07FF           2004   ;n                         Allocated to registers r2 
07FF           2005   ;------------------------------------------------------------
07FF           2006   ;        .\cmon51.c:462: void breakorstep (void)
07FF           2007   ;        -----------------------------------------
07FF           2008   ;         function breakorstep
07FF           2009   ;        -----------------------------------------
07FF           2010   _breakorstep:
07FF           2011   ;        .\cmon51.c:466: gotbreak=0;
07FF 904C20    2012            mov     dptr,#_gotbreak
0802 E4        2013            clr     a
0803 F0        2014            movx    @dptr,a
0804           2015   ;        .\cmon51.c:467: breakpoint=0;
0804 C248      2016            clr     _breakpoint
0806           2017   ;        .\cmon51.c:469: if(go_pending==0x55)
0806 9017E0    2018            mov     dptr,#_go_pending
0809 E0        2019            movx    a,@dptr
080A FA        2020            mov     r2,a
080B BA5518    2021            cjne    r2,#0x55,L020002?
080E           2022   ;        .\cmon51.c:471: go_pending=0xaa;
080E 9017E0    2023            mov     dptr,#_go_pending
0811 74AA      2024            mov     a,#0xAA
0813 F0        2025            movx    @dptr,a
0814           2026   ;        .\cmon51.c:472: step_start=PC_save; //Next instruction to be executed
0814 904C48    2027            mov     dptr,#_PC_save
0817 E0        2028            movx    a,@dptr
0818 FA        2029            mov     r2,a
0819 A3        2030            inc     dptr
081A E0        2031            movx    a,@dptr
081B FB        2032            mov     r3,a
081C 901960    2033            mov     dptr,#_step_start
081F EA        2034            mov     a,r2
0820 F0        2035            movx    @dptr,a
0821 A3        2036            inc     dptr
0822 EB        2037            mov     a,r3
0823 F0        2038            movx    @dptr,a
0824           2039   ;        .\cmon51.c:473: gotbreak=0; //If changes to 1, the single step function worked!
0824 904C20    2040            mov     dptr,#_gotbreak
0827 E4        2041            clr     a
0828 F0        2042            movx    @dptr,a
0829           2043   ;        .\cmon51.c:474: gostep=1;
0829 9018A0    2044            mov     dptr,#_gostep
082C 7401      2045            mov     a,#0x01
082E F0        2046            movx    @dptr,a
082F           2047   ;        .\cmon51.c:475: dostep();
082F 120000    2048            lcall   _dostep
0832           2049   L020002?:
0832           2050   ;        .\cmon51.c:477: go_pending=0xaa;        
0832 9017E0    2051            mov     dptr,#_go_pending
0835 74AA      2052            mov     a,#0xAA
0837 F0        2053            movx    @dptr,a
0838           2054   ;        .\cmon51.c:479: if (trace_type)
0838 901820    2055            mov     dptr,#_trace_type
083B E0        2056            movx    a,@dptr
083C FA        2057            mov     r2,a
083D 7000      2058            jnz     L020043?
083F 020000    2059            ljmp    L020017?
0842           2060   L020043?:
0842           2061   ;        .\cmon51.c:481: if(trace_type==1) //Run in trace mode until a breapoint is hit
0842 901820    2062            mov     dptr,#_trace_type
0845 E0        2063            movx    a,@dptr
0846 FA        2064            mov     r2,a
0847 BA0118    2065            cjne    r2,#0x01,L020006?
084A           2066   ;        .\cmon51.c:483: for (n=0; n<4; n++)
084A 7A00      2067            mov     r2,#0x00
084C           2068   L020021?:
084C BA0498    2069            cjne    r2,#0x04,L020046?
084F           2070   L020046?:
084F 5000      2071            jnc     L020006?
0851           2072   ;        .\cmon51.c:485: if(br[n]==PC_save)
0851 EA        2073            mov     a,r2
0852 2A        2074            add     a,r2
0853 24C8      2075            add     a,#_br
0855 F582      2076            mov     dpl,a
0857 E4        2077            clr     a
0858 344E      2078            addc    a,#(_br >> 8)
085A F583      2079            mov     dph,a
085C E0        2080            movx    a,@dptr
085D FB        2081            mov     r3,a
085E A3        2082            inc     dptr
085F E0        2083            movx    a,@dptr
0860 FC        2084            mov     r4,a
0861 904C48    2085            mov     dptr,#_PC_save
0864 E0        2086            movx    a,@dptr
0865 FD        2087            mov     r5,a
0866 A3        2088            inc     dptr
0867 E0        2089            movx    a,@dptr
0868 FE        2090            mov     r6,a
0869 EB        2091            mov     a,r3
086A B505D8    2092            cjne    a,ar5,L020023?
086D EC        2093            mov     a,r4
086E B506D8    2094            cjne    a,ar6,L020023?
0871           2095   ;        .\cmon51.c:487: breakpoint=1;
0871 D248      2096            setb    _breakpoint
0873           2097   L020023?:
0873           2098   ;        .\cmon51.c:483: for (n=0; n<4; n++)
0873 0A        2099            inc     r2
0874 8000      2100            sjmp    L020021?
0876           2101   L020006?:
0876           2102   ;        .\cmon51.c:491: if ((break_address!=PC_save))
0876 901860    2103            mov     dptr,#_break_address
0879 E0        2104            movx    a,@dptr
087A FA        2105            mov     r2,a
087B A3        2106            inc     dptr
087C E0        2107            movx    a,@dptr
087D FB        2108            mov     r3,a
087E 904C48    2109            mov     dptr,#_PC_save
0881 E0        2110            movx    a,@dptr
0882 FC        2111            mov     r4,a
0883 A3        2112            inc     dptr
0884 E0        2113            movx    a,@dptr
0885 FD        2114            mov     r5,a
0886 EA        2115            mov     a,r2
0887 B50418    2116            cjne    a,ar4,L020050?
088A EB        2117            mov     a,r3
088B B50518    2118            cjne    a,ar5,L020050?
088E 8000      2119            sjmp    L020017?
0890           2120   L020050?:
0890           2121   ;        .\cmon51.c:493: if (trace_type>=2)
0890 901820    2122            mov     dptr,#_trace_type
0893 E0        2123            movx    a,@dptr
0894 FA        2124            mov     r2,a
0895 BA0258    2125            cjne    r2,#0x02,L020051?
0898           2126   L020051?:
0898 4000      2127            jc      L020008?
089A           2128   ;        .\cmon51.c:495: discnt=1;
089A 750001    2129            mov     _discnt,#0x01
089D E4        2130            clr     a
089E F501      2131            mov     (_discnt + 1),a
08A0           2132   ;        .\cmon51.c:496: unassemble(step_start); //The executed assembly instruction...
08A0 901960    2133            mov     dptr,#_step_start
08A3 E0        2134            movx    a,@dptr
08A4 FA        2135            mov     r2,a
08A5 A3        2136            inc     dptr
08A6 E0        2137            movx    a,@dptr
08A7 FB        2138            mov     r3,a
08A8 8A82      2139            mov     dpl,r2
08AA 8B83      2140            mov     dph,r3
08AC 120000    2141            lcall   _unassemble
08AF           2142   L020008?:
08AF           2143   ;        .\cmon51.c:498: if((JRXRDY==0)&&(breakpoint==0))
08AF 20C0D8    2144            jb      _JRXRDY,L020017?
08B2 2048D8    2145            jb      _breakpoint,L020017?
08B5           2146   ;        .\cmon51.c:500: if(trace_type==3) disp_regs();
08B5 901820    2147            mov     dptr,#_trace_type
08B8 E0        2148            movx    a,@dptr
08B9 FA        2149            mov     r2,a
08BA BA03D8    2150            cjne    r2,#0x03,L020010?
08BD 120000    2151            lcall   _disp_regs
08C0           2152   L020010?:
08C0           2153   ;        .\cmon51.c:501: step_start=PC_save;
08C0 904C48    2154            mov     dptr,#_PC_save
08C3 E0        2155            movx    a,@dptr
08C4 FA        2156            mov     r2,a
08C5 A3        2157            inc     dptr
08C6 E0        2158            movx    a,@dptr
08C7 FB        2159            mov     r3,a
08C8 901960    2160            mov     dptr,#_step_start
08CB EA        2161            mov     a,r2
08CC F0        2162            movx    @dptr,a
08CD A3        2163            inc     dptr
08CE EB        2164            mov     a,r3
08CF F0        2165            movx    @dptr,a
08D0           2166   ;        .\cmon51.c:502: dostep();
08D0 120000    2167            lcall   _dostep
08D3           2168   L020017?:
08D3           2169   ;        .\cmon51.c:506: if((trace_type>=2) && (RI==0))
08D3 901820    2170            mov     dptr,#_trace_type
08D6 E0        2171            movx    a,@dptr
08D7 FA        2172            mov     r2,a
08D8 BA0218    2173            cjne    r2,#0x02,L020057?
08DB           2174   L020057?:
08DB 4000      2175            jc      L020019?
08DD 209858    2176            jb      _RI,L020019?
08E0           2177   ;        .\cmon51.c:508: discnt=1;
08E0 750001    2178            mov     _discnt,#0x01
08E3 E4        2179            clr     a
08E4 F501      2180            mov     (_discnt + 1),a
08E6           2181   ;        .\cmon51.c:509: unassemble(step_start); //The executed assembly instruction...
08E6 901960    2182            mov     dptr,#_step_start
08E9 E0        2183            movx    a,@dptr
08EA FA        2184            mov     r2,a
08EB A3        2185            inc     dptr
08EC E0        2186            movx    a,@dptr
08ED FB        2187            mov     r3,a
08EE 8A82      2188            mov     dpl,r2
08F0 8B83      2189            mov     dph,r3
08F2 120000    2190            lcall   _unassemble
08F5           2191   L020019?:
08F5           2192   ;        .\cmon51.c:512: disp_regs();
08F5 020000    2193            ljmp    _disp_regs
08F8           2194   ;------------------------------------------------------------
08F8           2195   ;Allocation info for local variables in function 'do_cmd'
08F8           2196   ;------------------------------------------------------------
08F8           2197   ;i                         Allocated with name '_do_cmd_i_1_168'
08F8           2198   ;j                         Allocated with name '_do_cmd_j_1_168'
08F8           2199   ;n                         Allocated with name '_do_cmd_n_1_168'
08F8           2200   ;p                         Allocated to registers r4 r5 
08F8           2201   ;q                         Allocated with name '_do_cmd_q_1_168'
08F8           2202   ;c                         Allocated to registers r6 
08F8           2203   ;d                         Allocated to registers r2 
08F8           2204   ;x                         Allocated to registers r7 
08F8           2205   ;y                         Allocated with name '_do_cmd_y_1_168'
08F8           2206   ;cmd                       Allocated with name '_do_cmd_cmd_1_168'
08F8           2207   ;sloc0                     Allocated with name '_do_cmd_sloc0_1_0'
08F8           2208   ;------------------------------------------------------------
08F8           2209   ;        .\cmon51.c:515: void do_cmd (void)
08F8           2210   ;        -----------------------------------------
08F8           2211   ;         function do_cmd
08F8           2212   ;        -----------------------------------------
08F8           2213   _do_cmd:
08F8           2214   ;        .\cmon51.c:523: append_txbuff=0;
08F8 C200      2215            clr     _append_txbuff
08FA           2216   ;        .\cmon51.c:525: if (gotbreak!=1) //Power-on reset
08FA 904C20    2217            mov     dptr,#_gotbreak
08FD E0        2218            movx    a,@dptr
08FE FA        2219            mov     r2,a
08FF BA0198    2220            cjne    r2,#0x01,L021320?
0902 8000      2221            sjmp    L021002?
0904           2222   L021320?:
0904           2223   ;        .\cmon51.c:527: putsp(BANNER);
0904 90AF18    2224            mov     dptr,#__str_3
0907 75F080    2225            mov     b,#0x80
090A 120000    2226            lcall   _putsp
090D           2227   ;        .\cmon51.c:528: SP_save=7; //Default user stack location
090D 904D08    2228            mov     dptr,#_SP_save
0910 7407      2229            mov     a,#0x07
0912 F0        2230            movx    @dptr,a
0913           2231   ;        .\cmon51.c:529: LEDRA_save=0xff;
0913 904CC8    2232            mov     dptr,#_LEDRA_save
0916 74FF      2233            mov     a,#0xFF
0918 F0        2234            movx    @dptr,a
0919           2235   ;        .\cmon51.c:530: LEDRB_save=0xff;
0919 904C88    2236            mov     dptr,#_LEDRB_save
091C 74FF      2237            mov     a,#0xFF
091E F0        2238            movx    @dptr,a
091F           2239   ;        .\cmon51.c:531: restorePC();
091F 120000    2240            lcall   _restorePC
0922           2241   ;        .\cmon51.c:532: cmd=0;
0922 75D800    2242            mov     _do_cmd_cmd_1_168,#0x00
0925 8000      2243            sjmp    L021220?
0927           2244   L021002?:
0927           2245   ;        .\cmon51.c:534: else breakorstep(); //Got here from the beak/step interrupt
0927 120000    2246            lcall   _breakorstep
092A           2247   ;        .\cmon51.c:536: while(1)
092A           2248   L021220?:
092A           2249   ;        .\cmon51.c:538: fillmem(buff, BUFFSIZE, 0);;
092A 75E020    2250            mov     _fillmem_PARM_2,#0x20
092D E4        2251            clr     a
092E F5E1      2252            mov     (_fillmem_PARM_2 + 1),a
0930 75A000    2253            mov     _fillmem_PARM_3,#0x00
0933 905198    2254            mov     dptr,#_buff
0936 75F040    2255            mov     b,#0x40
0939 120000    2256            lcall   _fillmem
093C           2257   ;        .\cmon51.c:539: getsn();
093C 120000    2258            lcall   _getsn
093F           2259   ;        .\cmon51.c:540: cleanbuff();
093F 120000    2260            lcall   _cleanbuff
0942           2261   ;        .\cmon51.c:541: break_address=0;
0942 901860    2262            mov     dptr,#_break_address
0945 E4        2263            clr     a
0946 F0        2264            movx    @dptr,a
0947 A3        2265            inc     dptr
0948 F0        2266            movx    @dptr,a
0949           2267   ;        .\cmon51.c:542: trace_type=0;
0949 901820    2268            mov     dptr,#_trace_type
094C E4        2269            clr     a
094D F0        2270            movx    @dptr,a
094E           2271   ;        .\cmon51.c:545: cursor=0;
094E 755800    2272            mov     _cursor,#0x00
0951           2273   ;        .\cmon51.c:546: getwordn();   //skip the command name
0951 120000    2274            lcall   _getwordn
0954           2275   ;        .\cmon51.c:547: n=getwordn(); //n is the first parameter/number
0954 120000    2276            lcall   _getwordn
0957 858208    2277            mov     _do_cmd_n_1_168,dpl
095A 858309    2278            mov     (_do_cmd_n_1_168 + 1),dph
095D           2279   ;        .\cmon51.c:548: p=getwordn(); //p is the second parameter/number
095D 120000    2280            lcall   _getwordn
0960 AC82      2281            mov     r4,dpl
0962 AD83      2282            mov     r5,dph
0964           2283   ;        .\cmon51.c:549: q=getwordn(); //q is the third parameter/number
0964 C004      2284            push    ar4
0966 C005      2285            push    ar5
0968 120000    2286            lcall   _getwordn
096B 858248    2287            mov     _do_cmd_q_1_168,dpl
096E 858349    2288            mov     (_do_cmd_q_1_168 + 1),dph
0971 D005      2289            pop     ar5
0973 D004      2290            pop     ar4
0975           2291   ;        .\cmon51.c:550: i=n&0xfff0;
0975 74F0      2292            mov     a,#0xF0
0977 5508      2293            anl     a,_do_cmd_n_1_168
0979 F588      2294            mov     _do_cmd_i_1_168,a
097B 850989    2295            mov     (_do_cmd_i_1_168 + 1),(_do_cmd_n_1_168 + 1)
097E           2296   ;        .\cmon51.c:551: j=(p+15)&0xfff0;
097E 740F      2297            mov     a,#0x0F
0980 2C        2298            add     a,r4
0981 FE        2299            mov     r6,a
0982 E4        2300            clr     a
0983 3D        2301            addc    a,r5
0984 FF        2302            mov     r7,a
0985 74F0      2303            mov     a,#0xF0
0987 5E        2304            anl     a,r6
0988 F5C8      2305            mov     _do_cmd_j_1_168,a
098A 8FC9      2306            mov     (_do_cmd_j_1_168 + 1),r7
098C           2307   ;        .\cmon51.c:552: c=n; // Sometimes for the first parameter we need an unsigned char
098C AE08      2308            mov     r6,_do_cmd_n_1_168
098E           2309   ;        .\cmon51.c:553: p_bit=(p==0?0:1);
098E EC        2310            mov     a,r4
098F 4D        2311            orl     a,r5
0990 24FF      2312            add     a,#0xff
0992 9208      2313            mov     _do_cmd_p_bit_1_168,c
0994           2314   ;        .\cmon51.c:555: cmd=nlist(cmdlst)&0x7f;
0994 9013A0    2315            mov     dptr,#_cmdlst
0997 75F080    2316            mov     b,#0x80
099A C004      2317            push    ar4
099C C005      2318            push    ar5
099E C006      2319            push    ar6
09A0 120000    2320            lcall   _nlist
09A3 E582      2321            mov     a,dpl
09A5 D006      2322            pop     ar6
09A7 D005      2323            pop     ar5
09A9 D004      2324            pop     ar4
09AB 547F      2325            anl     a,#0x7F
09AD F5D8      2326            mov     _do_cmd_cmd_1_168,a
09AF           2327   ;        .\cmon51.c:557: switch(cmd)
09AF E5D8      2328            mov     a,_do_cmd_cmd_1_168
09B1 FF        2329            mov     r7,a
09B2 24D1      2330            add     a,#0xff - 0x2E
09B4 5000      2331            jnc     L021321?
09B6 020000    2332            ljmp    L021156?
09B9           2333   L021321?:
09B9 EF        2334            mov     a,r7
09BA           2335   L021324?:
09BA 243D      2336            add     a,#(L021322?-3-L021324?)
09BC 83        2337            movc    a,@a+pc
09BD C0E0      2338            push    acc
09BF EF        2339            mov     a,r7
09C0           2340   L021325?:
09C0 243D      2341            add     a,#(L021323?-3-L021325?)
09C2 83        2342            movc    a,@a+pc
09C3 C0E0      2343            push    acc
09C5 22        2344            ret
09C6           2345   L021322?:
09C6 98        2346            db      L021005?
09C7 D8        2347            db      L021006?
09C8 18        2348            db      L021007?
09C9 58        2349            db      L021008?
09CA 98        2350            db      L021009?
09CB D8        2351            db      L021010?
09CC 18        2352            db      L021011?
09CD 58        2353            db      L021012?
09CE 98        2354            db      L021013?
09CF D8        2355            db      L021014?
09D0 18        2356            db      L021017?
09D1 58        2357            db      L021023?
09D2 98        2358            db      L021024?
09D3 D8        2359            db      L021025?
09D4 18        2360            db      L021026?
09D5 58        2361            db      L021027?
09D6 98        2362            db      L021031?
09D7 D8        2363            db      L021019?
09D8 18        2364            db      L021035?
09D9 58        2365            db      L021036?
09DA 98        2366            db      L021037?
09DB D8        2367            db      L021038?
09DC 18        2368            db      L021039?
09DD 58        2369            db      L021040?
09DE 98        2370            db      L021041?
09DF D8        2371            db      L021042?
09E0 18        2372            db      L021018?
09E1 58        2373            db      L021022?
09E2 98        2374            db      L021046?
09E3 D8        2375            db      L021049?
09E4 18        2376            db      L021050?
09E5 58        2377            db      L021051?
09E6 98        2378            db      L021055?
09E7 D8        2379            db      L021056?
09E8 18        2380            db      L021057?
09E9 18        2381            db      L021156?
09EA 58        2382            db      L021058?
09EB 98        2383            db      L021088?
09EC 18        2384            db      L021156?
09ED D8        2385            db      L021095?
09EE 18        2386            db      L021096?
09EF 58        2387            db      L021140?
09F0 18        2388            db      L021156?
09F1 98        2389            db      L021147?
09F2 D8        2390            db      L021015?
09F3 18        2391            db      L021016?
09F4 58        2392            db      L021004?
09F5           2393   L021323?:
09F5 B1        2394            db      L021005?>>8
09F6 B1        2395            db      L021006?>>8
09F7 B2        2396            db      L021007?>>8
09F8 B2        2397            db      L021008?>>8
09F9 B2        2398            db      L021009?>>8
09FA B2        2399            db      L021010?>>8
09FB B3        2400            db      L021011?>>8
09FC B3        2401            db      L021012?>>8
09FD B3        2402            db      L021013?>>8
09FE B3        2403            db      L021014?>>8
09FF B4        2404            db      L021017?>>8
0A00 B4        2405            db      L021023?>>8
0A01 B4        2406            db      L021024?>>8
0A02 B4        2407            db      L021025?>>8
0A03 B5        2408            db      L021026?>>8
0A04 B5        2409            db      L021027?>>8
0A05 B5        2410            db      L021031?>>8
0A06 B5        2411            db      L021019?>>8
0A07 B6        2412            db      L021035?>>8
0A08 B6        2413            db      L021036?>>8
0A09 B6        2414            db      L021037?>>8
0A0A B6        2415            db      L021038?>>8
0A0B B7        2416            db      L021039?>>8
0A0C B7        2417            db      L021040?>>8
0A0D B7        2418            db      L021041?>>8
0A0E B7        2419            db      L021042?>>8
0A0F B8        2420            db      L021018?>>8
0A10 B8        2421            db      L021022?>>8
0A11 B8        2422            db      L021046?>>8
0A12 B8        2423            db      L021049?>>8
0A13 B9        2424            db      L021050?>>8
0A14 B9        2425            db      L021051?>>8
0A15 B9        2426            db      L021055?>>8
0A16 B9        2427            db      L021056?>>8
0A17 BA        2428            db      L021057?>>8
0A18 B0        2429            db      L021156?>>8
0A19 BA        2430            db      L021058?>>8
0A1A BA        2431            db      L021088?>>8
0A1B B0        2432            db      L021156?>>8
0A1C BA        2433            db      L021095?>>8
0A1D BB        2434            db      L021096?>>8
0A1E BB        2435            db      L021140?>>8
0A1F B0        2436            db      L021156?>>8
0A20 BB        2437            db      L021147?>>8
0A21 BB        2438            db      L021015?>>8
0A22 BC        2439            db      L021016?>>8
0A23 BC        2440            db      L021004?>>8
0A24           2441   ;        .\cmon51.c:559: case ID_nothing:
0A24           2442   L021004?:
0A24           2443   ;        .\cmon51.c:560: break;
0A24 020000    2444            ljmp    L021220?
0A27           2445   ;        .\cmon51.c:562: case ID_display_data:
0A27           2446   L021005?:
0A27           2447   ;        .\cmon51.c:563: dispmem(iram_save, 0, 'D');
0A27 E4        2448            clr     a
0A28 F5C8      2449            mov     _dispmem_PARM_2,a
0A2A F5C9      2450            mov     (_dispmem_PARM_2 + 1),a
0A2C 758844    2451            mov     _dispmem_PARM_3,#0x44
0A2F 904F08    2452            mov     dptr,#_iram_save
0A32 75F000    2453            mov     b,#0x00
0A35 120000    2454            lcall   _dispmem
0A38           2455   ;        .\cmon51.c:564: break;
0A38 020000    2456            ljmp    L021220?
0A3B           2457   ;        .\cmon51.c:566: case ID_modify_data:
0A3B           2458   L021006?:
0A3B           2459   ;        .\cmon51.c:567: modifymem(&iram_save[n&0x7f], 'D');
0A3B 747F      2460            mov     a,#0x7F
0A3D 5508      2461            anl     a,_do_cmd_n_1_168
0A3F 7A00      2462            mov     r2,#0x00
0A41 2408      2463            add     a,#_iram_save
0A43 FF        2464            mov     r7,a
0A44 EA        2465            mov     a,r2
0A45 344F      2466            addc    a,#(_iram_save >> 8)
0A47 FA        2467            mov     r2,a
0A48 7B00      2468            mov     r3,#0x00
0A4A 751844    2469            mov     _modifymem_PARM_2,#0x44
0A4D 8F82      2470            mov     dpl,r7
0A4F 8A83      2471            mov     dph,r2
0A51 8BF0      2472            mov     b,r3
0A53 120000    2473            lcall   _modifymem
0A56           2474   ;        .\cmon51.c:568: break;
0A56 020000    2475            ljmp    L021220?
0A59           2476   ;        .\cmon51.c:570: case ID_fill_data:
0A59           2477   L021007?:
0A59           2478   ;        .\cmon51.c:571: fillmem(&iram_save[n&0x7f], (p>0x80)?0x80:p, (unsigned char) q);
0A59 747F      2479            mov     a,#0x7F
0A5B 5508      2480            anl     a,_do_cmd_n_1_168
0A5D 7B00      2481            mov     r3,#0x00
0A5F 2408      2482            add     a,#_iram_save
0A61 FA        2483            mov     r2,a
0A62 EB        2484            mov     a,r3
0A63 344F      2485            addc    a,#(_iram_save >> 8)
0A65 FB        2486            mov     r3,a
0A66 7F00      2487            mov     r7,#0x00
0A68 C3        2488            clr     c
0A69 7480      2489            mov     a,#0x80
0A6B 9C        2490            subb    a,r4
0A6C E4        2491            clr     a
0A6D 9D        2492            subb    a,r5
0A6E 5000      2493            jnc     L021232?
0A70 752880    2494            mov     _do_cmd_sloc0_1_0,#0x80
0A73 E4        2495            clr     a
0A74 F529      2496            mov     (_do_cmd_sloc0_1_0 + 1),a
0A76 8000      2497            sjmp    L021233?
0A78           2498   L021232?:
0A78 8C28      2499            mov     _do_cmd_sloc0_1_0,r4
0A7A 8D29      2500            mov     (_do_cmd_sloc0_1_0 + 1),r5
0A7C           2501   L021233?:
0A7C 8548A0    2502            mov     _fillmem_PARM_3,_do_cmd_q_1_168
0A7F 8528E0    2503            mov     _fillmem_PARM_2,_do_cmd_sloc0_1_0
0A82 8529E1    2504            mov     (_fillmem_PARM_2 + 1),(_do_cmd_sloc0_1_0 + 1)
0A85 8A82      2505            mov     dpl,r2
0A87 8B83      2506            mov     dph,r3
0A89 8FF0      2507            mov     b,r7
0A8B 120000    2508            lcall   _fillmem
0A8E           2509   ;        .\cmon51.c:572: break;
0A8E 020000    2510            ljmp    L021220?
0A91           2511   ;        .\cmon51.c:574: case ID_display_idata:
0A91           2512   L021008?:
0A91           2513   ;        .\cmon51.c:575: dispmem((unsigned char data *)(0x80), 0, 'I');
0A91 E4        2514            clr     a
0A92 F5C8      2515            mov     _dispmem_PARM_2,a
0A94 F5C9      2516            mov     (_dispmem_PARM_2 + 1),a
0A96 758849    2517            mov     _dispmem_PARM_3,#0x49
0A99 904080    2518            mov     dptr,#0x4080
0A9C 75F000    2519            mov     b,#0x00
0A9F 120000    2520            lcall   _dispmem
0AA2           2521   ;        .\cmon51.c:576: break;
0AA2 020000    2522            ljmp    L021220?
0AA5           2523   ;        .\cmon51.c:578: case ID_modify_idata:
0AA5           2524   L021009?:
0AA5           2525   ;        .\cmon51.c:579: modifymem((unsigned char data *)((n&0x7f)|0x80), 'I');
0AA5 747F      2526            mov     a,#0x7F
0AA7 5508      2527            anl     a,_do_cmd_n_1_168
0AA9 FA        2528            mov     r2,a
0AAA 430280    2529            orl     ar2,#0x80
0AAD 7B00      2530            mov     r3,#0x00
0AAF 7F40      2531            mov     r7,#0x40
0AB1 751849    2532            mov     _modifymem_PARM_2,#0x49
0AB4 8A82      2533            mov     dpl,r2
0AB6 8B83      2534            mov     dph,r3
0AB8 8FF0      2535            mov     b,r7
0ABA 120000    2536            lcall   _modifymem
0ABD           2537   ;        .\cmon51.c:580: break;
0ABD 020000    2538            ljmp    L021220?
0AC0           2539   ;        .\cmon51.c:582: case ID_fill_idata:
0AC0           2540   L021010?:
0AC0           2541   ;        .\cmon51.c:583: fillmem((unsigned char data *)((n&0x7f)|0x80), p>0x80?0x80:p, (unsigned char) q);
0AC0 747F      2542            mov     a,#0x7F
0AC2 5508      2543            anl     a,_do_cmd_n_1_168
0AC4 FA        2544            mov     r2,a
0AC5 430280    2545            orl     ar2,#0x80
0AC8 7B00      2546            mov     r3,#0x00
0ACA 7F40      2547            mov     r7,#0x40
0ACC C3        2548            clr     c
0ACD 7480      2549            mov     a,#0x80
0ACF 9C        2550            subb    a,r4
0AD0 E4        2551            clr     a
0AD1 9D        2552            subb    a,r5
0AD2 5000      2553            jnc     L021234?
0AD4 752880    2554            mov     _do_cmd_sloc0_1_0,#0x80
0AD7 E4        2555            clr     a
0AD8 F529      2556            mov     (_do_cmd_sloc0_1_0 + 1),a
0ADA 8000      2557            sjmp    L021235?
0ADC           2558   L021234?:
0ADC 8C28      2559            mov     _do_cmd_sloc0_1_0,r4
0ADE 8D29      2560            mov     (_do_cmd_sloc0_1_0 + 1),r5
0AE0           2561   L021235?:
0AE0 8548A0    2562            mov     _fillmem_PARM_3,_do_cmd_q_1_168
0AE3 8528E0    2563            mov     _fillmem_PARM_2,_do_cmd_sloc0_1_0
0AE6 8529E1    2564            mov     (_fillmem_PARM_2 + 1),(_do_cmd_sloc0_1_0 + 1)
0AE9 8A82      2565            mov     dpl,r2
0AEB 8B83      2566            mov     dph,r3
0AED 8FF0      2567            mov     b,r7
0AEF 120000    2568            lcall   _fillmem
0AF2           2569   ;        .\cmon51.c:584: break;
0AF2 020000    2570            ljmp    L021220?
0AF5           2571   ;        .\cmon51.c:586: case ID_display_xdata:
0AF5           2572   L021011?:
0AF5           2573   ;        .\cmon51.c:587: dispmem((unsigned char xdata *)i, j, 'X');
0AF5 AA88      2574            mov     r2,_do_cmd_i_1_168
0AF7 AB89      2575            mov     r3,(_do_cmd_i_1_168 + 1)
0AF9 7F00      2576            mov     r7,#0x00
0AFB 85C8C8    2577            mov     _dispmem_PARM_2,_do_cmd_j_1_168
0AFE 85C9C9    2578            mov     (_dispmem_PARM_2 + 1),(_do_cmd_j_1_168 + 1)
0B01 758858    2579            mov     _dispmem_PARM_3,#0x58
0B04 8A82      2580            mov     dpl,r2
0B06 8B83      2581            mov     dph,r3
0B08 8FF0      2582            mov     b,r7
0B0A 120000    2583            lcall   _dispmem
0B0D           2584   ;        .\cmon51.c:588: break;
0B0D 020000    2585            ljmp    L021220?
0B10           2586   ;        .\cmon51.c:590: case ID_modify_xdata:
0B10           2587   L021012?:
0B10           2588   ;        .\cmon51.c:591: modifymem((unsigned char xdata *)n, 'X');
0B10 AA08      2589            mov     r2,_do_cmd_n_1_168
0B12 AB09      2590            mov     r3,(_do_cmd_n_1_168 + 1)
0B14 7F00      2591            mov     r7,#0x00
0B16 751858    2592            mov     _modifymem_PARM_2,#0x58
0B19 8A82      2593            mov     dpl,r2
0B1B 8B83      2594            mov     dph,r3
0B1D 8FF0      2595            mov     b,r7
0B1F 120000    2596            lcall   _modifymem
0B22           2597   ;        .\cmon51.c:592: break;
0B22 020000    2598            ljmp    L021220?
0B25           2599   ;        .\cmon51.c:594: case ID_fill_xdata:
0B25           2600   L021013?:
0B25           2601   ;        .\cmon51.c:595: fillmem((unsigned char xdata *)n, p, (unsigned char)q);
0B25 AA08      2602            mov     r2,_do_cmd_n_1_168
0B27 AB09      2603            mov     r3,(_do_cmd_n_1_168 + 1)
0B29 7F00      2604            mov     r7,#0x00
0B2B 8548A0    2605            mov     _fillmem_PARM_3,_do_cmd_q_1_168
0B2E 8CE0      2606            mov     _fillmem_PARM_2,r4
0B30 8DE1      2607            mov     (_fillmem_PARM_2 + 1),r5
0B32 8A82      2608            mov     dpl,r2
0B34 8B83      2609            mov     dph,r3
0B36 8FF0      2610            mov     b,r7
0B38 120000    2611            lcall   _fillmem
0B3B           2612   ;        .\cmon51.c:596: break;
0B3B 020000    2613            ljmp    L021220?
0B3E           2614   ;        .\cmon51.c:598: case ID_display_code:
0B3E           2615   L021014?:
0B3E           2616   ;        .\cmon51.c:599: dispmem((unsigned char code *)i, j, 'C');
0B3E AA88      2617            mov     r2,_do_cmd_i_1_168
0B40 AB89      2618            mov     r3,(_do_cmd_i_1_168 + 1)
0B42 7F80      2619            mov     r7,#0x80
0B44 85C8C8    2620            mov     _dispmem_PARM_2,_do_cmd_j_1_168
0B47 85C9C9    2621            mov     (_dispmem_PARM_2 + 1),(_do_cmd_j_1_168 + 1)
0B4A 758843    2622            mov     _dispmem_PARM_3,#0x43
0B4D 8A82      2623            mov     dpl,r2
0B4F 8B83      2624            mov     dph,r3
0B51 8FF0      2625            mov     b,r7
0B53 120000    2626            lcall   _dispmem
0B56           2627   ;        .\cmon51.c:600: break;
0B56 020000    2628            ljmp    L021220?
0B59           2629   ;        .\cmon51.c:602: case ID_modify_code:
0B59           2630   L021015?:
0B59           2631   ;        .\cmon51.c:603: XRAMUSEDAS=0x01; // 32k RAM accessed as xdata
0B59 75C301    2632            mov     _XRAMUSEDAS,#0x01
0B5C           2633   ;        .\cmon51.c:604: modifymem((unsigned char xdata *)n, 'C');
0B5C AA08      2634            mov     r2,_do_cmd_n_1_168
0B5E AB09      2635            mov     r3,(_do_cmd_n_1_168 + 1)
0B60 7F00      2636            mov     r7,#0x00
0B62 751843    2637            mov     _modifymem_PARM_2,#0x43
0B65 8A82      2638            mov     dpl,r2
0B67 8B83      2639            mov     dph,r3
0B69 8FF0      2640            mov     b,r7
0B6B 120000    2641            lcall   _modifymem
0B6E           2642   ;        .\cmon51.c:605: XRAMUSEDAS=0x00; // 32k RAM accessed as code
0B6E 75C300    2643            mov     _XRAMUSEDAS,#0x00
0B71           2644   ;        .\cmon51.c:606: break;
0B71 020000    2645            ljmp    L021220?
0B74           2646   ;        .\cmon51.c:608: case ID_fill_code:
0B74           2647   L021016?:
0B74           2648   ;        .\cmon51.c:609: XRAMUSEDAS=0x01; // 32k RAM accessed as xdata
0B74 75C301    2649            mov     _XRAMUSEDAS,#0x01
0B77           2650   ;        .\cmon51.c:610: fillmem((unsigned char xdata *)n, p, (unsigned char)q);
0B77 AA08      2651            mov     r2,_do_cmd_n_1_168
0B79 AB09      2652            mov     r3,(_do_cmd_n_1_168 + 1)
0B7B 7F00      2653            mov     r7,#0x00
0B7D 8548A0    2654            mov     _fillmem_PARM_3,_do_cmd_q_1_168
0B80 8CE0      2655            mov     _fillmem_PARM_2,r4
0B82 8DE1      2656            mov     (_fillmem_PARM_2 + 1),r5
0B84 8A82      2657            mov     dpl,r2
0B86 8B83      2658            mov     dph,r3
0B88 8FF0      2659            mov     b,r7
0B8A 120000    2660            lcall   _fillmem
0B8D           2661   ;        .\cmon51.c:611: XRAMUSEDAS=0x00; // 32k RAM accessed as code
0B8D 75C300    2662            mov     _XRAMUSEDAS,#0x00
0B90           2663   ;        .\cmon51.c:612: break;
0B90 020000    2664            ljmp    L021220?
0B93           2665   ;        .\cmon51.c:614: case ID_unassemble:
0B93           2666   L021017?:
0B93           2667   ;        .\cmon51.c:615: discnt=p;
0B93 8C00      2668            mov     _discnt,r4
0B95 8D01      2669            mov     (_discnt + 1),r5
0B97           2670   ;        .\cmon51.c:616: append_txbuff=1;
0B97 D200      2671            setb    _append_txbuff
0B99           2672   ;        .\cmon51.c:617: unassemble(n);
0B99 850882    2673            mov     dpl,_do_cmd_n_1_168
0B9C 850983    2674            mov     dph,(_do_cmd_n_1_168 + 1)
0B9F 120000    2675            lcall   _unassemble
0BA2           2676   ;        .\cmon51.c:618: append_txbuff=0;
0BA2 C200      2677            clr     _append_txbuff
0BA4           2678   ;        .\cmon51.c:619: add_nlcursor_txbuff();
0BA4 120000    2679            lcall   _add_nlcursor_txbuff
0BA7           2680   ;        .\cmon51.c:620: flush_txbuff();
0BA7 120000    2681            lcall   _flush_txbuff
0BAA           2682   ;        .\cmon51.c:621: break;
0BAA 020000    2683            ljmp    L021220?
0BAD           2684   ;        .\cmon51.c:623: case ID_trace_reg:
0BAD           2685   L021018?:
0BAD           2686   ;        .\cmon51.c:624: trace_type++;
0BAD 901820    2687            mov     dptr,#_trace_type
0BB0 E0        2688            movx    a,@dptr
0BB1 2401      2689            add     a,#0x01
0BB3 F0        2690            movx    @dptr,a
0BB4           2691   ;        .\cmon51.c:626: case ID_trace:
0BB4           2692   L021019?:
0BB4           2693   ;        .\cmon51.c:627: trace_type++;
0BB4 901820    2694            mov     dptr,#_trace_type
0BB7 E0        2695            movx    a,@dptr
0BB8 2401      2696            add     a,#0x01
0BBA F0        2697            movx    @dptr,a
0BBB           2698   ;        .\cmon51.c:628: if(n==0) break;
0BBB E508      2699            mov     a,_do_cmd_n_1_168
0BBD 4509      2700            orl     a,(_do_cmd_n_1_168 + 1)
0BBF 7000      2701            jnz     L021328?
0BC1 020000    2702            ljmp    L021220?
0BC4           2703   L021328?:
0BC4           2704   ;        .\cmon51.c:629: break_address=n;
0BC4 901860    2705            mov     dptr,#_break_address
0BC7 E508      2706            mov     a,_do_cmd_n_1_168
0BC9 F0        2707            movx    @dptr,a
0BCA A3        2708            inc     dptr
0BCB E509      2709            mov     a,(_do_cmd_n_1_168 + 1)
0BCD F0        2710            movx    @dptr,a
0BCE           2711   ;        .\cmon51.c:630: n=0;
0BCE E4        2712            clr     a
0BCF F508      2713            mov     _do_cmd_n_1_168,a
0BD1 F509      2714            mov     (_do_cmd_n_1_168 + 1),a
0BD3           2715   ;        .\cmon51.c:632: case ID_go_breaks:
0BD3           2716   L021022?:
0BD3           2717   ;        .\cmon51.c:633: trace_type++;
0BD3 901820    2718            mov     dptr,#_trace_type
0BD6 E0        2719            movx    a,@dptr
0BD7 2401      2720            add     a,#0x01
0BD9 F0        2721            movx    @dptr,a
0BDA           2722   ;        .\cmon51.c:634: step_start=(n==0)?PC_save:n; //Next instruction to be executed
0BDA E508      2723            mov     a,_do_cmd_n_1_168
0BDC 4509      2724            orl     a,(_do_cmd_n_1_168 + 1)
0BDE B401D8    2725            cjne    a,#0x01,L021329?
0BE1           2726   L021329?:
0BE1 E4        2727            clr     a
0BE2 33        2728            rlc     a
0BE3 FA        2729            mov     r2,a
0BE4 6000      2730            jz      L021236?
0BE6 904C48    2731            mov     dptr,#_PC_save
0BE9 E0        2732            movx    a,@dptr
0BEA FA        2733            mov     r2,a
0BEB A3        2734            inc     dptr
0BEC E0        2735            movx    a,@dptr
0BED FB        2736            mov     r3,a
0BEE 8000      2737            sjmp    L021237?
0BF0           2738   L021236?:
0BF0 AA08      2739            mov     r2,_do_cmd_n_1_168
0BF2 AB09      2740            mov     r3,(_do_cmd_n_1_168 + 1)
0BF4           2741   L021237?:
0BF4 901960    2742            mov     dptr,#_step_start
0BF7 EA        2743            mov     a,r2
0BF8 F0        2744            movx    @dptr,a
0BF9 A3        2745            inc     dptr
0BFA EB        2746            mov     a,r3
0BFB F0        2747            movx    @dptr,a
0BFC           2748   ;        .\cmon51.c:635: gotbreak=0; //If changes to 1, the single step function worked!
0BFC 904C20    2749            mov     dptr,#_gotbreak
0BFF           2750   ;        .\cmon51.c:636: gostep=0;
0BFF E4        2751            clr     a
0C00 F0        2752            movx    @dptr,a
0C01 9018A0    2753            mov     dptr,#_gostep
0C04 F0        2754            movx    @dptr,a
0C05           2755   ;        .\cmon51.c:637: dostep();
0C05 120000    2756            lcall   _dostep
0C08           2757   ;        .\cmon51.c:639: case ID_go:
0C08           2758   L021023?:
0C08           2759   ;        .\cmon51.c:640: go_pending=0x55;
0C08 9017E0    2760            mov     dptr,#_go_pending
0C0B 7455      2761            mov     a,#0x55
0C0D F0        2762            movx    @dptr,a
0C0E           2763   ;        .\cmon51.c:641: case ID_step:
0C0E           2764   L021024?:
0C0E           2765   ;        .\cmon51.c:642: step_start=(n==0)?PC_save:n; //Next instruction to be executed
0C0E E508      2766            mov     a,_do_cmd_n_1_168
0C10 4509      2767            orl     a,(_do_cmd_n_1_168 + 1)
0C12 B40198    2768            cjne    a,#0x01,L021331?
0C15           2769   L021331?:
0C15 E4        2770            clr     a
0C16 33        2771            rlc     a
0C17 FA        2772            mov     r2,a
0C18 6000      2773            jz      L021238?
0C1A 904C48    2774            mov     dptr,#_PC_save
0C1D E0        2775            movx    a,@dptr
0C1E FA        2776            mov     r2,a
0C1F A3        2777            inc     dptr
0C20 E0        2778            movx    a,@dptr
0C21 FB        2779            mov     r3,a
0C22 8000      2780            sjmp    L021239?
0C24           2781   L021238?:
0C24 AA08      2782            mov     r2,_do_cmd_n_1_168
0C26 AB09      2783            mov     r3,(_do_cmd_n_1_168 + 1)
0C28           2784   L021239?:
0C28 901960    2785            mov     dptr,#_step_start
0C2B EA        2786            mov     a,r2
0C2C F0        2787            movx    @dptr,a
0C2D A3        2788            inc     dptr
0C2E EB        2789            mov     a,r3
0C2F F0        2790            movx    @dptr,a
0C30           2791   ;        .\cmon51.c:643: gotbreak=0; //If changes to 1, the single step function worked!
0C30 904C20    2792            mov     dptr,#_gotbreak
0C33           2793   ;        .\cmon51.c:644: gostep=0;
0C33 E4        2794            clr     a
0C34 F0        2795            movx    @dptr,a
0C35 9018A0    2796            mov     dptr,#_gostep
0C38 F0        2797            movx    @dptr,a
0C39           2798   ;        .\cmon51.c:645: dostep();
0C39 120000    2799            lcall   _dostep
0C3C           2800   ;        .\cmon51.c:646: break;
0C3C 020000    2801            ljmp    L021220?
0C3F           2802   ;        .\cmon51.c:648: case ID_registers:
0C3F           2803   L021025?:
0C3F           2804   ;        .\cmon51.c:649: disp_regs();
0C3F 120000    2805            lcall   _disp_regs
0C42           2806   ;        .\cmon51.c:650: break;
0C42 020000    2807            ljmp    L021220?
0C45           2808   ;        .\cmon51.c:652: case ID_load:
0C45           2809   L021026?:
0C45           2810   ;        .\cmon51.c:654: break;
0C45 020000    2811            ljmp    L021220?
0C48           2812   ;        .\cmon51.c:656: case ID_reg_dptr:
0C48           2813   L021027?:
0C48           2814   ;        .\cmon51.c:657: if(buff_haseq)
0C48 30C858    2815            jnb     _buff_haseq,L021029?
0C4B           2816   ;        .\cmon51.c:659: DPL_save=c;
0C4B 904D88    2817            mov     dptr,#_DPL_save
0C4E EE        2818            mov     a,r6
0C4F F0        2819            movx    @dptr,a
0C50 A3        2820            inc     dptr
0C51 E4        2821            clr     a
0C52 F0        2822            movx    @dptr,a
0C53           2823   ;        .\cmon51.c:660: DPH_save=highof(n);
0C53 AA09      2824            mov     r2,(_do_cmd_n_1_168 + 1)
0C55 7B00      2825            mov     r3,#0x00
0C57 904D48    2826            mov     dptr,#_DPH_save
0C5A EA        2827            mov     a,r2
0C5B F0        2828            movx    @dptr,a
0C5C A3        2829            inc     dptr
0C5D EB        2830            mov     a,r3
0C5E F0        2831            movx    @dptr,a
0C5F           2832   ;        .\cmon51.c:661: outcursor();
0C5F 120000    2833            lcall   _outcursor
0C62 020000    2834            ljmp    L021220?
0C65           2835   L021029?:
0C65           2836   ;        .\cmon51.c:663: else outwordnl((DPH_save*0x100)+DPL_save);
0C65 904D48    2837            mov     dptr,#_DPH_save
0C68 E0        2838            movx    a,@dptr
0C69 FA        2839            mov     r2,a
0C6A A3        2840            inc     dptr
0C6B E0        2841            movx    a,@dptr
0C6C 8A29      2842            mov     (_do_cmd_sloc0_1_0 + 1),r2
0C6E 752800    2843            mov     _do_cmd_sloc0_1_0,#0x00
0C71 904D88    2844            mov     dptr,#_DPL_save
0C74 E0        2845            movx    a,@dptr
0C75 FF        2846            mov     r7,a
0C76 A3        2847            inc     dptr
0C77 E0        2848            movx    a,@dptr
0C78 FA        2849            mov     r2,a
0C79 EF        2850            mov     a,r7
0C7A 2528      2851            add     a,_do_cmd_sloc0_1_0
0C7C F582      2852            mov     dpl,a
0C7E EA        2853            mov     a,r2
0C7F 3529      2854            addc    a,(_do_cmd_sloc0_1_0 + 1)
0C81 F583      2855            mov     dph,a
0C83 120000    2856            lcall   _outwordnl
0C86           2857   ;        .\cmon51.c:664: break;
0C86 020000    2858            ljmp    L021220?
0C89           2859   ;        .\cmon51.c:666: case ID_reg_pc:
0C89           2860   L021031?:
0C89           2861   ;        .\cmon51.c:667: if(buff_haseq)
0C89 30C898    2862            jnb     _buff_haseq,L021033?
0C8C           2863   ;        .\cmon51.c:669: PC_save=n;
0C8C 904C48    2864            mov     dptr,#_PC_save
0C8F E508      2865            mov     a,_do_cmd_n_1_168
0C91 F0        2866            movx    @dptr,a
0C92 A3        2867            inc     dptr
0C93 E509      2868            mov     a,(_do_cmd_n_1_168 + 1)
0C95 F0        2869            movx    @dptr,a
0C96           2870   ;        .\cmon51.c:670: outcursor();
0C96 120000    2871            lcall   _outcursor
0C99 020000    2872            ljmp    L021220?
0C9C           2873   L021033?:
0C9C           2874   ;        .\cmon51.c:672: else outwordnl(PC_save);
0C9C 904C48    2875            mov     dptr,#_PC_save
0C9F E0        2876            movx    a,@dptr
0CA0 FA        2877            mov     r2,a
0CA1 A3        2878            inc     dptr
0CA2 E0        2879            movx    a,@dptr
0CA3 FB        2880            mov     r3,a
0CA4 8A82      2881            mov     dpl,r2
0CA6 8B83      2882            mov     dph,r3
0CA8 120000    2883            lcall   _outwordnl
0CAB           2884   ;        .\cmon51.c:673: break;
0CAB 020000    2885            ljmp    L021220?
0CAE           2886   ;        .\cmon51.c:675: case ID_reg_r0:
0CAE           2887   L021035?:
0CAE           2888   ;        .\cmon51.c:676: case ID_reg_r1:
0CAE           2889   L021036?:
0CAE           2890   ;        .\cmon51.c:677: case ID_reg_r2:
0CAE           2891   L021037?:
0CAE           2892   ;        .\cmon51.c:678: case ID_reg_r3:
0CAE           2893   L021038?:
0CAE           2894   ;        .\cmon51.c:679: case ID_reg_r4:
0CAE           2895   L021039?:
0CAE           2896   ;        .\cmon51.c:680: case ID_reg_r5:
0CAE           2897   L021040?:
0CAE           2898   ;        .\cmon51.c:681: case ID_reg_r6:
0CAE           2899   L021041?:
0CAE           2900   ;        .\cmon51.c:682: case ID_reg_r7:
0CAE           2901   L021042?:
0CAE           2902   ;        .\cmon51.c:683: d=(PSW_save&0x18)+buff[1]-'0';
0CAE 904E48    2903            mov     dptr,#_PSW_save
0CB1 E0        2904            movx    a,@dptr
0CB2 FA        2905            mov     r2,a
0CB3 530218    2906            anl     ar2,#0x18
0CB6 E599      2907            mov     a,(_buff + 0x0001)
0CB8 2A        2908            add     a,r2
0CB9 24D0      2909            add     a,#0xd0
0CBB FA        2910            mov     r2,a
0CBC           2911   ;        .\cmon51.c:684: if(buff_haseq)
0CBC 30C8D8    2912            jnb     _buff_haseq,L021044?
0CBF           2913   ;        .\cmon51.c:686: iram_save[d]=c;
0CBF EA        2914            mov     a,r2
0CC0 2408      2915            add     a,#_iram_save
0CC2 F582      2916            mov     dpl,a
0CC4 E4        2917            clr     a
0CC5 344F      2918            addc    a,#(_iram_save >> 8)
0CC7 F583      2919            mov     dph,a
0CC9 EE        2920            mov     a,r6
0CCA F0        2921            movx    @dptr,a
0CCB           2922   ;        .\cmon51.c:687: outcursor();
0CCB 120000    2923            lcall   _outcursor
0CCE 020000    2924            ljmp    L021220?
0CD1           2925   L021044?:
0CD1           2926   ;        .\cmon51.c:691: outbytenl(iram_save[d]);
0CD1 EA        2927            mov     a,r2
0CD2 2408      2928            add     a,#_iram_save
0CD4 F582      2929            mov     dpl,a
0CD6 E4        2930            clr     a
0CD7 344F      2931            addc    a,#(_iram_save >> 8)
0CD9 F583      2932            mov     dph,a
0CDB E0        2933            movx    a,@dptr
0CDC F582      2934            mov     dpl,a
0CDE 120000    2935            lcall   _outbytenl
0CE1           2936   ;        .\cmon51.c:693: break;
0CE1 020000    2937            ljmp    L021220?
0CE4           2938   ;        .\cmon51.c:695: case ID_brl:
0CE4           2939   L021046?:
0CE4           2940   ;        .\cmon51.c:697: get_txbuff();
0CE4 120000    2941            lcall   _get_txbuff
0CE7           2942   ;        .\cmon51.c:698: BPC=0x40;
0CE7 75FC40    2943            mov     _BPC,#0x40
0CEA           2944   ;        .\cmon51.c:699: for(n=0; n<0x8000; n++)
0CEA E4        2945            clr     a
0CEB F508      2946            mov     _do_cmd_n_1_168,a
0CED F509      2947            mov     (_do_cmd_n_1_168 + 1),a
0CEF           2948   L021222?:
0CEF 7480      2949            mov     a,#0x100 - 0x80
0CF1 2509      2950            add     a,(_do_cmd_n_1_168 + 1)
0CF3 5000      2951            jnc     L021336?
0CF5 020000    2952            ljmp    L021225?
0CF8           2953   L021336?:
0CF8           2954   ;        .\cmon51.c:701: BPAH=n/0x100;
0CF8 AB09      2955            mov     r3,(_do_cmd_n_1_168 + 1)
0CFA 8BFF      2956            mov     _BPAH,r3
0CFC           2957   ;        .\cmon51.c:702: BPAL=n%0x100;
0CFC AB08      2958            mov     r3,_do_cmd_n_1_168
0CFE 7F00      2959            mov     r7,#0x00
0D00 8BFE      2960            mov     _BPAL,r3
0D02           2961   ;        .\cmon51.c:705: _endasm; //We need to clock-in the value before reading it
0D02           2962            
0D02 00        2963                 nop
0D03           2964                 
0D03           2965   ;        .\cmon51.c:706: if(BPS&0x01)
0D03 E5FD      2966            mov     a,_BPS
0D05 30E0D8    2967            jnb     acc.0,L021224?
0D08           2968   ;        .\cmon51.c:708: add_wordnl_txbuff(n);
0D08 850882    2969            mov     dpl,_do_cmd_n_1_168
0D0B 850983    2970            mov     dph,(_do_cmd_n_1_168 + 1)
0D0E 120000    2971            lcall   _add_wordnl_txbuff
0D11           2972   L021224?:
0D11           2973   ;        .\cmon51.c:699: for(n=0; n<0x8000; n++)
0D11 0508      2974            inc     _do_cmd_n_1_168
0D13 E4        2975            clr     a
0D14 B50868    2976            cjne    a,_do_cmd_n_1_168,L021338?
0D17 0509      2977            inc     (_do_cmd_n_1_168 + 1)
0D19           2978   L021338?:
0D19 020000    2979            ljmp    L021222?
0D1C           2980   L021225?:
0D1C           2981   ;        .\cmon51.c:711: BPC=0x00;
0D1C 75FC00    2982            mov     _BPC,#0x00
0D1F           2983   ;        .\cmon51.c:713: BPAL=0xff;
0D1F 75FEFF    2984            mov     _BPAL,#0xFF
0D22           2985   ;        .\cmon51.c:714: BPAH=0xff;
0D22 75FFFF    2986            mov     _BPAH,#0xFF
0D25           2987   ;        .\cmon51.c:715: add_cursor_txbuff();
0D25 120000    2988            lcall   _add_cursor_txbuff
0D28           2989   ;        .\cmon51.c:716: flush_txbuff();
0D28 120000    2990            lcall   _flush_txbuff
0D2B           2991   ;        .\cmon51.c:717: break;
0D2B 020000    2992            ljmp    L021220?
0D2E           2993   ;        .\cmon51.c:719: case ID_brc:
0D2E           2994   L021049?:
0D2E           2995   ;        .\cmon51.c:721: BPC=0x02;
0D2E 75FC02    2996            mov     _BPC,#0x02
0D31           2997   ;        .\cmon51.c:722: for(n=0; n<0x8000; n++)
0D31 E4        2998            clr     a
0D32 F508      2999            mov     _do_cmd_n_1_168,a
0D34 F509      3000            mov     (_do_cmd_n_1_168 + 1),a
0D36           3001   L021226?:
0D36 7480      3002            mov     a,#0x100 - 0x80
0D38 2509      3003            add     a,(_do_cmd_n_1_168 + 1)
0D3A 4000      3004            jc      L021229?
0D3C           3005   ;        .\cmon51.c:724: BPAH=n/0x100;
0D3C AB09      3006            mov     r3,(_do_cmd_n_1_168 + 1)
0D3E 8BFF      3007            mov     _BPAH,r3
0D40           3008   ;        .\cmon51.c:725: BPAL=n%0x100;
0D40 AB08      3009            mov     r3,_do_cmd_n_1_168
0D42 7F00      3010            mov     r7,#0x00
0D44 8BFE      3011            mov     _BPAL,r3
0D46           3012   ;        .\cmon51.c:722: for(n=0; n<0x8000; n++)
0D46 0508      3013            inc     _do_cmd_n_1_168
0D48 E4        3014            clr     a
0D49 B508A8    3015            cjne    a,_do_cmd_n_1_168,L021226?
0D4C 0509      3016            inc     (_do_cmd_n_1_168 + 1)
0D4E 8000      3017            sjmp    L021226?
0D50           3018   L021229?:
0D50           3019   ;        .\cmon51.c:727: BPAL=0xff;
0D50 75FEFF    3020            mov     _BPAL,#0xFF
0D53           3021   ;        .\cmon51.c:728: BPC=0x00;
0D53 75FC00    3022            mov     _BPC,#0x00
0D56           3023   ;        .\cmon51.c:730: BPAL=0xff;
0D56 75FEFF    3024            mov     _BPAL,#0xFF
0D59           3025   ;        .\cmon51.c:731: BPAH=0xff;
0D59 75FFFF    3026            mov     _BPAH,#0xFF
0D5C           3027   ;        .\cmon51.c:732: outcursor();
0D5C 120000    3028            lcall   _outcursor
0D5F           3029   ;        .\cmon51.c:733: break;
0D5F 020000    3030            ljmp    L021220?
0D62           3031   ;        .\cmon51.c:735: case ID_br2:
0D62           3032   L021050?:
0D62           3033   ;        .\cmon51.c:736: case ID_br3:
0D62           3034   L021051?:
0D62           3035   ;        .\cmon51.c:737: d=buff[2]-'0';
0D62 E59A      3036            mov     a,(_buff + 0x0002)
0D64 24D0      3037            add     a,#0xd0
0D66 FA        3038            mov     r2,a
0D67           3039   ;        .\cmon51.c:738: if(buff_haseq) br[d]=n;
0D67 30C828    3040            jnb     _buff_haseq,L021053?
0D6A EA        3041            mov     a,r2
0D6B 2A        3042            add     a,r2
0D6C FB        3043            mov     r3,a
0D6D 24C8      3044            add     a,#_br
0D6F F582      3045            mov     dpl,a
0D71 E4        3046            clr     a
0D72 344E      3047            addc    a,#(_br >> 8)
0D74 F583      3048            mov     dph,a
0D76 E508      3049            mov     a,_do_cmd_n_1_168
0D78 F0        3050            movx    @dptr,a
0D79 A3        3051            inc     dptr
0D7A E509      3052            mov     a,(_do_cmd_n_1_168 + 1)
0D7C F0        3053            movx    @dptr,a
0D7D 020000    3054            ljmp    L021220?
0D80           3055   L021053?:
0D80           3056   ;        .\cmon51.c:739: else outwordnl(br[d]);
0D80 EA        3057            mov     a,r2
0D81 2A        3058            add     a,r2
0D82 24C8      3059            add     a,#_br
0D84 F582      3060            mov     dpl,a
0D86 E4        3061            clr     a
0D87 344E      3062            addc    a,#(_br >> 8)
0D89 F583      3063            mov     dph,a
0D8B E0        3064            movx    a,@dptr
0D8C FB        3065            mov     r3,a
0D8D A3        3066            inc     dptr
0D8E E0        3067            movx    a,@dptr
0D8F FF        3068            mov     r7,a
0D90 8B82      3069            mov     dpl,r3
0D92 8F83      3070            mov     dph,r7
0D94 120000    3071            lcall   _outwordnl
0D97           3072   ;        .\cmon51.c:740: break;
0D97 020000    3073            ljmp    L021220?
0D9A           3074   ;        .\cmon51.c:742: case ID_broff:
0D9A           3075   L021055?:
0D9A           3076   ;        .\cmon51.c:744: BPAL=n%0x100;
0D9A AB08      3077            mov     r3,_do_cmd_n_1_168
0D9C 8BFE      3078            mov     _BPAL,r3
0D9E           3079   ;        .\cmon51.c:745: BPAH=n/0x100;
0D9E AB09      3080            mov     r3,(_do_cmd_n_1_168 + 1)
0DA0 8BFF      3081            mov     _BPAH,r3
0DA2           3082   ;        .\cmon51.c:747: BPC=0x00;
0DA2 75FC00    3083            mov     _BPC,#0x00
0DA5           3084   ;        .\cmon51.c:748: BPC=0x02;
0DA5 75FC02    3085            mov     _BPC,#0x02
0DA8           3086   ;        .\cmon51.c:749: BPC=0x00;
0DA8 75FC00    3087            mov     _BPC,#0x00
0DAB           3088   ;        .\cmon51.c:751: BPAL=0xff;
0DAB 75FEFF    3089            mov     _BPAL,#0xFF
0DAE           3090   ;        .\cmon51.c:752: BPAH=0xff;
0DAE 75FFFF    3091            mov     _BPAH,#0xFF
0DB1           3092   ;        .\cmon51.c:753: outcursor();
0DB1 120000    3093            lcall   _outcursor
0DB4           3094   ;        .\cmon51.c:754: break;
0DB4 020000    3095            ljmp    L021220?
0DB7           3096   ;        .\cmon51.c:756: case ID_bron:
0DB7           3097   L021056?:
0DB7           3098   ;        .\cmon51.c:758: BPAL=n%0x100;
0DB7 AB08      3099            mov     r3,_do_cmd_n_1_168
0DB9 8BFE      3100            mov     _BPAL,r3
0DBB           3101   ;        .\cmon51.c:759: BPAH=n/0x100;
0DBB AB09      3102            mov     r3,(_do_cmd_n_1_168 + 1)
0DBD 8BFF      3103            mov     _BPAH,r3
0DBF           3104   ;        .\cmon51.c:761: BPC=0x01;
0DBF 75FC01    3105            mov     _BPC,#0x01
0DC2           3106   ;        .\cmon51.c:762: BPC=0x03;
0DC2 75FC03    3107            mov     _BPC,#0x03
0DC5           3108   ;        .\cmon51.c:763: BPC=0x01;
0DC5 75FC01    3109            mov     _BPC,#0x01
0DC8           3110   ;        .\cmon51.c:765: BPAL=0xff;
0DC8 75FEFF    3111            mov     _BPAL,#0xFF
0DCB           3112   ;        .\cmon51.c:766: BPAH=0xff;
0DCB 75FFFF    3113            mov     _BPAH,#0xFF
0DCE           3114   ;        .\cmon51.c:767: outcursor();
0DCE 120000    3115            lcall   _outcursor
0DD1           3116   ;        .\cmon51.c:768: break;
0DD1 020000    3117            ljmp    L021220?
0DD4           3118   ;        .\cmon51.c:770: case ID_pcr:  //Restore the PC
0DD4           3119   L021057?:
0DD4           3120   ;        .\cmon51.c:771: restorePC();
0DD4 120000    3121            lcall   _restorePC
0DD7           3122   ;        .\cmon51.c:772: outcursor();
0DD7 120000    3123            lcall   _outcursor
0DDA           3124   ;        .\cmon51.c:773: break;
0DDA 020000    3125            ljmp    L021220?
0DDD           3126   ;        .\cmon51.c:775: case ID_LEDRA:
0DDD           3127   L021058?:
0DDD           3128   ;        .\cmon51.c:776: if(buff_haseq)
0DDD 30C868    3129            jnb     _buff_haseq,L021086?
0DE0           3130   ;        .\cmon51.c:778: if(buff_hasdot)
0DE0 3088A8    3131            jnb     _buff_hasdot,L021083?
0DE3           3132   ;        .\cmon51.c:780: if     (c==0) LEDRA_0=p_bit;
0DE3 EE        3133            mov     a,r6
0DE4 7000      3134            jnz     L021080?
0DE6 A208      3135            mov     c,_do_cmd_p_bit_1_168
0DE8 92E8      3136            mov     _LEDRA_0,c
0DEA 8000      3137            sjmp    L021084?
0DEC           3138   L021080?:
0DEC           3139   ;        .\cmon51.c:781: else if(c==1) LEDRA_1=p_bit;
0DEC BE0168    3140            cjne    r6,#0x01,L021077?
0DEF A208      3141            mov     c,_do_cmd_p_bit_1_168
0DF1 92E9      3142            mov     _LEDRA_1,c
0DF3 8000      3143            sjmp    L021084?
0DF5           3144   L021077?:
0DF5           3145   ;        .\cmon51.c:782: else if(c==2) LEDRA_2=p_bit;
0DF5 BE02A8    3146            cjne    r6,#0x02,L021074?
0DF8 A208      3147            mov     c,_do_cmd_p_bit_1_168
0DFA 92EA      3148            mov     _LEDRA_2,c
0DFC 8000      3149            sjmp    L021084?
0DFE           3150   L021074?:
0DFE           3151   ;        .\cmon51.c:783: else if(c==3) LEDRA_3=p_bit;
0DFE BE03E8    3152            cjne    r6,#0x03,L021071?
0E01 A208      3153            mov     c,_do_cmd_p_bit_1_168
0E03 92EB      3154            mov     _LEDRA_3,c
0E05 8000      3155            sjmp    L021084?
0E07           3156   L021071?:
0E07           3157   ;        .\cmon51.c:784: else if(c==4) LEDRA_4=p_bit;
0E07 BE0428    3158            cjne    r6,#0x04,L021068?
0E0A A208      3159            mov     c,_do_cmd_p_bit_1_168
0E0C 92EC      3160            mov     _LEDRA_4,c
0E0E 8000      3161            sjmp    L021084?
0E10           3162   L021068?:
0E10           3163   ;        .\cmon51.c:785: else if(c==5) LEDRA_5=p_bit;
0E10 BE0568    3164            cjne    r6,#0x05,L021065?
0E13 A208      3165            mov     c,_do_cmd_p_bit_1_168
0E15 92ED      3166            mov     _LEDRA_5,c
0E17 8000      3167            sjmp    L021084?
0E19           3168   L021065?:
0E19           3169   ;        .\cmon51.c:786: else if(c==6) LEDRA_6=p_bit;
0E19 BE06A8    3170            cjne    r6,#0x06,L021062?
0E1C A208      3171            mov     c,_do_cmd_p_bit_1_168
0E1E 92EE      3172            mov     _LEDRA_6,c
0E20 8000      3173            sjmp    L021084?
0E22           3174   L021062?:
0E22           3175   ;        .\cmon51.c:787: else if(c==7) LEDRA_7=p_bit;
0E22 BE0728    3176            cjne    r6,#0x07,L021084?
0E25 A208      3177            mov     c,_do_cmd_p_bit_1_168
0E27 92EF      3178            mov     _LEDRA_7,c
0E29 8000      3179            sjmp    L021084?
0E2B           3180   L021083?:
0E2B           3181   ;        .\cmon51.c:791: LEDRA=c;
0E2B 8EE8      3182            mov     _LEDRA,r6
0E2D           3183   L021084?:
0E2D           3184   ;        .\cmon51.c:793: outcursor();
0E2D 120000    3185            lcall   _outcursor
0E30 020000    3186            ljmp    L021220?
0E33           3187   L021086?:
0E33           3188   ;        .\cmon51.c:795: else putsp(cnr);
0E33 9012A0    3189            mov     dptr,#_cnr
0E36 75F080    3190            mov     b,#0x80
0E39 120000    3191            lcall   _putsp
0E3C           3192   ;        .\cmon51.c:796: break;
0E3C 020000    3193            ljmp    L021220?
0E3F           3194   ;        .\cmon51.c:798: case ID_LEDRB:
0E3F           3195   L021088?:
0E3F           3196   ;        .\cmon51.c:799: if(buff_haseq)
0E3F 30C8E8    3197            jnb     _buff_haseq,L021093?
0E42           3198   ;        .\cmon51.c:801: if(buff_hasdot)
0E42 308828    3199            jnb     _buff_hasdot,L021090?
0E45           3200   ;        .\cmon51.c:803: putsp(nba);
0E45 9012E0    3201            mov     dptr,#_nba
0E48 75F080    3202            mov     b,#0x80
0E4B 120000    3203            lcall   _putsp
0E4E 020000    3204            ljmp    L021220?
0E51           3205   L021090?:
0E51           3206   ;        .\cmon51.c:807: LEDRB=c;
0E51 8E95      3207            mov     _LEDRB,r6
0E53           3208   ;        .\cmon51.c:808: outcursor();
0E53 120000    3209            lcall   _outcursor
0E56 020000    3210            ljmp    L021220?
0E59           3211   L021093?:
0E59           3212   ;        .\cmon51.c:811: else putsp(cnr);
0E59 9012A0    3213            mov     dptr,#_cnr
0E5C 75F080    3214            mov     b,#0x80
0E5F 120000    3215            lcall   _putsp
0E62           3216   ;        .\cmon51.c:812: break;
0E62 020000    3217            ljmp    L021220?
0E65           3218   ;        .\cmon51.c:814: case ID_KEY:
0E65           3219   L021095?:
0E65           3220   ;        .\cmon51.c:815: case ID_SWA:
0E65           3221   L021096?:
0E65           3222   ;        .\cmon51.c:816: if(buff_haseq==0)
0E65 30C868    3223            jnb     _buff_haseq,L021361?
0E68 020000    3224            ljmp    L021138?
0E6B           3225   L021361?:
0E6B           3226   ;        .\cmon51.c:818: if(buff_hasdot)
0E6B 2088E8    3227            jb      _buff_hasdot,L021362?
0E6E 020000    3228            ljmp    L021135?
0E71           3229   L021362?:
0E71           3230   ;        .\cmon51.c:820: if(cmd==ID_SWA)
0E71 7428      3231            mov     a,#0x28
0E73 B5D868    3232            cjne    a,_do_cmd_cmd_1_168,L021132?
0E76           3233   ;        .\cmon51.c:822: if     (c==0) p_bit=SWA_0;
0E76 EE        3234            mov     a,r6
0E77 7000      3235            jnz     L021118?
0E79 A2E8      3236            mov     c,_SWA_0
0E7B 9208      3237            mov     _do_cmd_p_bit_1_168,c
0E7D 8000      3238            sjmp    L021133?
0E7F           3239   L021118?:
0E7F           3240   ;        .\cmon51.c:823: else if(c==1) p_bit=SWA_1;
0E7F BE0128    3241            cjne    r6,#0x01,L021115?
0E82 A2E9      3242            mov     c,_SWA_1
0E84 9208      3243            mov     _do_cmd_p_bit_1_168,c
0E86 8000      3244            sjmp    L021133?
0E88           3245   L021115?:
0E88           3246   ;        .\cmon51.c:824: else if(c==2) p_bit=SWA_2;
0E88 BE0268    3247            cjne    r6,#0x02,L021112?
0E8B A2EA      3248            mov     c,_SWA_2
0E8D 9208      3249            mov     _do_cmd_p_bit_1_168,c
0E8F 8000      3250            sjmp    L021133?
0E91           3251   L021112?:
0E91           3252   ;        .\cmon51.c:825: else if(c==3) p_bit=SWA_3;
0E91 BE03A8    3253            cjne    r6,#0x03,L021109?
0E94 A2EB      3254            mov     c,_SWA_3
0E96 9208      3255            mov     _do_cmd_p_bit_1_168,c
0E98 8000      3256            sjmp    L021133?
0E9A           3257   L021109?:
0E9A           3258   ;        .\cmon51.c:826: else if(c==4) p_bit=SWA_4;
0E9A BE04E8    3259            cjne    r6,#0x04,L021106?
0E9D A2EC      3260            mov     c,_SWA_4
0E9F 9208      3261            mov     _do_cmd_p_bit_1_168,c
0EA1 8000      3262            sjmp    L021133?
0EA3           3263   L021106?:
0EA3           3264   ;        .\cmon51.c:827: else if(c==5) p_bit=SWA_5;
0EA3 BE0528    3265            cjne    r6,#0x05,L021103?
0EA6 A2ED      3266            mov     c,_SWA_5
0EA8 9208      3267            mov     _do_cmd_p_bit_1_168,c
0EAA 8000      3268            sjmp    L021133?
0EAC           3269   L021103?:
0EAC           3270   ;        .\cmon51.c:828: else if(c==6) p_bit=SWA_6;
0EAC BE0668    3271            cjne    r6,#0x06,L021100?
0EAF A2EE      3272            mov     c,_SWA_6
0EB1 9208      3273            mov     _do_cmd_p_bit_1_168,c
0EB3 8000      3274            sjmp    L021133?
0EB5           3275   L021100?:
0EB5           3276   ;        .\cmon51.c:829: else if(c==7) p_bit=SWA_7;
0EB5 BE07E8    3277            cjne    r6,#0x07,L021133?
0EB8 A2EF      3278            mov     c,_SWA_7
0EBA 9208      3279            mov     _do_cmd_p_bit_1_168,c
0EBC 8000      3280            sjmp    L021133?
0EBE           3281   L021132?:
0EBE           3282   ;        .\cmon51.c:833: if     (c==0) p_bit=KEY_0;
0EBE EE        3283            mov     a,r6
0EBF 7000      3284            jnz     L021129?
0EC1 A2F8      3285            mov     c,_KEY_0
0EC3 9208      3286            mov     _do_cmd_p_bit_1_168,c
0EC5 8000      3287            sjmp    L021133?
0EC7           3288   L021129?:
0EC7           3289   ;        .\cmon51.c:834: else if(c==1) p_bit=KEY_1;
0EC7 BE01E8    3290            cjne    r6,#0x01,L021126?
0ECA A2F9      3291            mov     c,_KEY_1
0ECC 9208      3292            mov     _do_cmd_p_bit_1_168,c
0ECE 8000      3293            sjmp    L021133?
0ED0           3294   L021126?:
0ED0           3295   ;        .\cmon51.c:835: else if(c==2) p_bit=KEY_2;
0ED0 BE0228    3296            cjne    r6,#0x02,L021123?
0ED3 A2FA      3297            mov     c,_KEY_2
0ED5 9208      3298            mov     _do_cmd_p_bit_1_168,c
0ED7 8000      3299            sjmp    L021133?
0ED9           3300   L021123?:
0ED9           3301   ;        .\cmon51.c:836: else if(c==3) p_bit=KEY_3;
0ED9 BE03E8    3302            cjne    r6,#0x03,L021133?
0EDC A2FB      3303            mov     c,_KEY_3
0EDE 9208      3304            mov     _do_cmd_p_bit_1_168,c
0EE0           3305   L021133?:
0EE0           3306   ;        .\cmon51.c:838: putcnl(p_bit?'1':'0');
0EE0 300868    3307            jnb     _do_cmd_p_bit_1_168,L021240?
0EE3 7B31      3308            mov     r3,#0x31
0EE5 8000      3309            sjmp    L021241?
0EE7           3310   L021240?:
0EE7 7B30      3311            mov     r3,#0x30
0EE9           3312   L021241?:
0EE9 8B82      3313            mov     dpl,r3
0EEB 120000    3314            lcall   _putcnl
0EEE 020000    3315            ljmp    L021220?
0EF1           3316   L021135?:
0EF1           3317   ;        .\cmon51.c:842: outbytenl(cmd==ID_SWA?SWA:KEY);
0EF1 7428      3318            mov     a,#0x28
0EF3 B5D8E8    3319            cjne    a,_do_cmd_cmd_1_168,L021242?
0EF6 ABE8      3320            mov     r3,_SWA
0EF8 8000      3321            sjmp    L021243?
0EFA           3322   L021242?:
0EFA ABF8      3323            mov     r3,_KEY
0EFC           3324   L021243?:
0EFC 8B82      3325            mov     dpl,r3
0EFE 120000    3326            lcall   _outbytenl
0F01 020000    3327            ljmp    L021220?
0F04           3328   L021138?:
0F04           3329   ;        .\cmon51.c:845: else putsp(cnw);
0F04 901260    3330            mov     dptr,#_cnw
0F07 75F080    3331            mov     b,#0x80
0F0A 120000    3332            lcall   _putsp
0F0D           3333   ;        .\cmon51.c:846: break;
0F0D 020000    3334            ljmp    L021220?
0F10           3335   ;        .\cmon51.c:848: case ID_SWB:
0F10           3336   L021140?:
0F10           3337   ;        .\cmon51.c:849: if(buff_haseq==0)
0F10 20C868    3338            jb      _buff_haseq,L021145?
0F13           3339   ;        .\cmon51.c:851: if(buff_hasdot)
0F13 3088A8    3340            jnb     _buff_hasdot,L021142?
0F16           3341   ;        .\cmon51.c:853: putsp(nba);
0F16 9012E0    3342            mov     dptr,#_nba
0F19 75F080    3343            mov     b,#0x80
0F1C 120000    3344            lcall   _putsp
0F1F           3345   ;        .\cmon51.c:854: break;
0F1F 020000    3346            ljmp    L021220?
0F22           3347   L021142?:
0F22           3348   ;        .\cmon51.c:858: outbytenl(SWB);
0F22 859582    3349            mov     dpl,_SWB
0F25 120000    3350            lcall   _outbytenl
0F28 020000    3351            ljmp    L021220?
0F2B           3352   L021145?:
0F2B           3353   ;        .\cmon51.c:861: else putsp(cnw);
0F2B 901260    3354            mov     dptr,#_cnw
0F2E 75F080    3355            mov     b,#0x80
0F31 120000    3356            lcall   _putsp
0F34           3357   ;        .\cmon51.c:862: break;
0F34 020000    3358            ljmp    L021220?
0F37           3359   ;        .\cmon51.c:864: case ID_BANK:
0F37           3360   L021147?:
0F37           3361   ;        .\cmon51.c:865: if(buff_haseq)
0F37 30C8E8    3362            jnb     _buff_haseq,L021154?
0F3A           3363   ;        .\cmon51.c:867: PSW_save&=0b_1110_0111;
0F3A 904E48    3364            mov     dptr,#_PSW_save
0F3D E0        3365            movx    a,@dptr
0F3E FB        3366            mov     r3,a
0F3F 54E7      3367            anl     a,#0xE7
0F41 F0        3368            movx    @dptr,a
0F42           3369   ;        .\cmon51.c:868: switch(c&3)
0F42 7403      3370            mov     a,#0x03
0F44 5E        3371            anl     a,r6
0F45 FB        3372            mov  r3,a
0F46 24FC      3373            add     a,#0xff - 0x03
0F48 4000      3374            jc      L021152?
0F4A EB        3375            mov     a,r3
0F4B 2B        3376            add     a,r3
0F4C 2B        3377            add     a,r3
0F4D 90CB68    3378            mov     dptr,#L021394?
0F50 73        3379            jmp     @a+dptr
0F51           3380   L021394?:
0F51 020000    3381            ljmp    L021148?
0F54 020000    3382            ljmp    L021149?
0F57 020000    3383            ljmp    L021150?
0F5A 020000    3384            ljmp    L021151?
0F5D           3385   ;        .\cmon51.c:870: case 0:
0F5D           3386   L021148?:
0F5D           3387   ;        .\cmon51.c:871: break;
0F5D           3388   ;        .\cmon51.c:872: case 1:
0F5D 8000      3389            sjmp    L021152?
0F5F           3390   L021149?:
0F5F           3391   ;        .\cmon51.c:873: PSW_save|=0b_0000_1000;
0F5F 904E48    3392            mov     dptr,#_PSW_save
0F62 E0        3393            movx    a,@dptr
0F63 FB        3394            mov     r3,a
0F64 4408      3395            orl     a,#0x08
0F66 F0        3396            movx    @dptr,a
0F67           3397   ;        .\cmon51.c:874: break;
0F67           3398   ;        .\cmon51.c:875: case 2:
0F67 8000      3399            sjmp    L021152?
0F69           3400   L021150?:
0F69           3401   ;        .\cmon51.c:876: PSW_save|=0b_0001_0000;
0F69 904E48    3402            mov     dptr,#_PSW_save
0F6C E0        3403            movx    a,@dptr
0F6D FB        3404            mov     r3,a
0F6E 4410      3405            orl     a,#0x10
0F70 F0        3406            movx    @dptr,a
0F71           3407   ;        .\cmon51.c:877: break;
0F71           3408   ;        .\cmon51.c:878: case 3:
0F71 8000      3409            sjmp    L021152?
0F73           3410   L021151?:
0F73           3411   ;        .\cmon51.c:879: PSW_save|=0b_0001_1000;
0F73 904E48    3412            mov     dptr,#_PSW_save
0F76 E0        3413            movx    a,@dptr
0F77 FB        3414            mov     r3,a
0F78 4418      3415            orl     a,#0x18
0F7A F0        3416            movx    @dptr,a
0F7B           3417   ;        .\cmon51.c:881: }
0F7B           3418   L021152?:
0F7B           3419   ;        .\cmon51.c:882: outcursor();
0F7B 120000    3420            lcall   _outcursor
0F7E 020000    3421            ljmp    L021220?
0F81           3422   L021154?:
0F81           3423   ;        .\cmon51.c:886: outbytenl((PSW_save/0x8)&0x3);
0F81 904E48    3424            mov     dptr,#_PSW_save
0F84 E0        3425            movx    a,@dptr
0F85 C4        3426            swap    a
0F86 23        3427            rl      a
0F87 541F      3428            anl     a,#0x1f
0F89 FB        3429            mov     r3,a
0F8A 7403      3430            mov     a,#0x03
0F8C 5B        3431            anl     a,r3
0F8D F582      3432            mov     dpl,a
0F8F 120000    3433            lcall   _outbytenl
0F92           3434   ;        .\cmon51.c:888: break;
0F92 020000    3435            ljmp    L021220?
0F95           3436   ;        .\cmon51.c:890: default:
0F95           3437   L021156?:
0F95           3438   ;        .\cmon51.c:892: y=nlist(bitn); //Search for bit names first
0F95 900000    3439            mov     dptr,#_bitn
0F98 75F080    3440            mov     b,#0x80
0F9B C004      3441            push    ar4
0F9D C005      3442            push    ar5
0F9F C006      3443            push    ar6
0FA1 120000    3444            lcall   _nlist
0FA4 858288    3445            mov     _do_cmd_y_1_168,dpl
0FA7 D006      3446            pop     ar6
0FA9 D005      3447            pop     ar5
0FAB D004      3448            pop     ar4
0FAD           3449   ;        .\cmon51.c:893: if (y!=0xff)
0FAD 74FF      3450            mov     a,#0xFF
0FAF B588E8    3451            cjne    a,_do_cmd_y_1_168,L021395?
0FB2 8000      3452            sjmp    L021160?
0FB4           3453   L021395?:
0FB4           3454   ;        .\cmon51.c:895: x=y&0xf8;
0FB4 74F8      3455            mov     a,#0xF8
0FB6 5588      3456            anl     a,_do_cmd_y_1_168
0FB8 FF        3457            mov     r7,a
0FB9           3458   ;        .\cmon51.c:896: y=maskbit[y&0x7];
0FB9 7407      3459            mov     a,#0x07
0FBB 5588      3460            anl     a,_do_cmd_y_1_168
0FBD 901320    3461            mov     dptr,#_maskbit
0FC0 93        3462            movc    a,@a+dptr
0FC1 F588      3463            mov     _do_cmd_y_1_168,a
0FC3 8000      3464            sjmp    L021161?
0FC5           3465   L021160?:
0FC5           3466   ;        .\cmon51.c:900: x=nlist(sfrn); //Is not a bit, try a sfr
0FC5 900000    3467            mov     dptr,#_sfrn
0FC8 75F080    3468            mov     b,#0x80
0FCB C004      3469            push    ar4
0FCD C005      3470            push    ar5
0FCF C006      3471            push    ar6
0FD1 120000    3472            lcall   _nlist
0FD4 AF82      3473            mov     r7,dpl
0FD6 D006      3474            pop     ar6
0FD8 D005      3475            pop     ar5
0FDA D004      3476            pop     ar4
0FDC           3477   ;        .\cmon51.c:901: if(buff_hasdot)
0FDC 308868    3478            jnb     _buff_hasdot,L021161?
0FDF           3479   ;        .\cmon51.c:903: y=maskbit[c&0x7];
0FDF 7407      3480            mov     a,#0x07
0FE1 5E        3481            anl     a,r6
0FE2 901320    3482            mov     dptr,#_maskbit
0FE5 93        3483            movc    a,@a+dptr
0FE6 F588      3484            mov     _do_cmd_y_1_168,a
0FE8           3485   ;        .\cmon51.c:904: c=p;
0FE8 8C06      3486            mov     ar6,r4
0FEA           3487   L021161?:
0FEA           3488   ;        .\cmon51.c:908: if(x!=0xff)
0FEA BFFFE8    3489            cjne    r7,#0xFF,L021397?
0FED 020000    3490            ljmp    L021216?
0FF0           3491   L021397?:
0FF0           3492   ;        .\cmon51.c:911: /**/ if (x==0xd0) d=PSW_save;
0FF0 E4        3493            clr     a
0FF1 BFD068    3494            cjne    r7,#0xD0,L021398?
0FF4 04        3495            inc     a
0FF5           3496   L021398?:
0FF5 FC        3497            mov     r4,a
0FF6 6000      3498            jz      L021181?
0FF8 904E48    3499            mov     dptr,#_PSW_save
0FFB E0        3500            movx    a,@dptr
0FFC FA        3501            mov     r2,a
0FFD 8000      3502            sjmp    L021182?
0FFF           3503   L021181?:
0FFF           3504   ;        .\cmon51.c:912: else if (x==0xe0) d=A_save;
0FFF BFE028    3505            cjne    r7,#0xE0,L021178?
1002 904E88    3506            mov     dptr,#_A_save
1005 E0        3507            movx    a,@dptr
1006 FA        3508            mov     r2,a
1007 8000      3509            sjmp    L021182?
1009           3510   L021178?:
1009           3511   ;        .\cmon51.c:913: else if (x==0xf0) d=B_save;
1009 BFF068    3512            cjne    r7,#0xF0,L021175?
100C 904E08    3513            mov     dptr,#_B_save
100F E0        3514            movx    a,@dptr
1010 FA        3515            mov     r2,a
1011 8000      3516            sjmp    L021182?
1013           3517   L021175?:
1013           3518   ;        .\cmon51.c:914: else if (x==0xa8) d=IE_save;
1013 BFA8A8    3519            cjne    r7,#0xA8,L021172?
1016 904DC8    3520            mov     dptr,#_IE_save
1019 E0        3521            movx    a,@dptr
101A FA        3522            mov     r2,a
101B 8000      3523            sjmp    L021182?
101D           3524   L021172?:
101D           3525   ;        .\cmon51.c:915: else if (x==0x81) d=SP_save;
101D BF81E8    3526            cjne    r7,#0x81,L021169?
1020 904D08    3527            mov     dptr,#_SP_save
1023 E0        3528            movx    a,@dptr
1024 FA        3529            mov     r2,a
1025 8000      3530            sjmp    L021182?
1027           3531   L021169?:
1027           3532   ;        .\cmon51.c:916: else if (x==0x82) d=DPL_save;
1027 BF8228    3533            cjne    r7,#0x82,L021166?
102A 904D88    3534            mov     dptr,#_DPL_save
102D E0        3535            movx    a,@dptr
102E FD        3536            mov     r5,a
102F A3        3537            inc     dptr
1030 E0        3538            movx    a,@dptr
1031 FB        3539            mov     r3,a
1032 8D02      3540            mov     ar2,r5
1034 8000      3541            sjmp    L021182?
1036           3542   L021166?:
1036           3543   ;        .\cmon51.c:917: else if (x==0x83) d=DPH_save;
1036 BF8368    3544            cjne    r7,#0x83,L021163?
1039 904D48    3545            mov     dptr,#_DPH_save
103C E0        3546            movx    a,@dptr
103D FB        3547            mov     r3,a
103E A3        3548            inc     dptr
103F E0        3549            movx    a,@dptr
1040 FD        3550            mov     r5,a
1041 8B02      3551            mov     ar2,r3
1043 8000      3552            sjmp    L021182?
1045           3553   L021163?:
1045           3554   ;        .\cmon51.c:918: else d=read_sfr(x);
1045 8F82      3555            mov     dpl,r7
1047 C004      3556            push    ar4
1049 C006      3557            push    ar6
104B C007      3558            push    ar7
104D 120000    3559            lcall   _read_sfr
1050 AA82      3560            mov     r2,dpl
1052 D007      3561            pop     ar7
1054 D006      3562            pop     ar6
1056 D004      3563            pop     ar4
1058           3564   L021182?:
1058           3565   ;        .\cmon51.c:921: if(y!=0xff)
1058 74FF      3566            mov     a,#0xFF
105A B588E8    3567            cjne    a,_do_cmd_y_1_168,L021413?
105D 7401      3568            mov     a,#0x01
105F 8000      3569            sjmp    L021414?
1061           3570   L021413?:
1061 E4        3571            clr     a
1062           3572   L021414?:
1062 FB        3573            mov     r3,a
1063 7000      3574            jnz     L021187?
1065           3575   ;        .\cmon51.c:923: if(c) c=d|y;
1065 EE        3576            mov     a,r6
1066 6000      3577            jz      L021184?
1068 E588      3578            mov     a,_do_cmd_y_1_168
106A 4A        3579            orl     a,r2
106B FE        3580            mov     r6,a
106C 8000      3581            sjmp    L021187?
106E           3582   L021184?:
106E           3583   ;        .\cmon51.c:924: else c=d&(~y);
106E E588      3584            mov     a,_do_cmd_y_1_168
1070 F4        3585            cpl     a
1071 FD        3586            mov     r5,a
1072 5A        3587            anl     a,r2
1073 FE        3588            mov     r6,a
1074           3589   L021187?:
1074           3590   ;        .\cmon51.c:928: if(buff_haseq)
1074 30C8E8    3591            jnb     _buff_haseq,L021213?
1077           3592   ;        .\cmon51.c:930: /**/ if (x==0xd0) PSW_save=c;
1077 EC        3593            mov     a,r4
1078 6000      3594            jz      L021207?
107A 904E48    3595            mov     dptr,#_PSW_save
107D EE        3596            mov     a,r6
107E F0        3597            movx    @dptr,a
107F 8000      3598            sjmp    L021208?
1081           3599   L021207?:
1081           3600   ;        .\cmon51.c:931: else if (x==0xe0) A_save=c;
1081 BFE0A8    3601            cjne    r7,#0xE0,L021204?
1084 904E88    3602            mov     dptr,#_A_save
1087 EE        3603            mov     a,r6
1088 F0        3604            movx    @dptr,a
1089 8000      3605            sjmp    L021208?
108B           3606   L021204?:
108B           3607   ;        .\cmon51.c:932: else if (x==0xf0) B_save=c;
108B BFF0E8    3608            cjne    r7,#0xF0,L021201?
108E 904E08    3609            mov     dptr,#_B_save
1091 EE        3610            mov     a,r6
1092 F0        3611            movx    @dptr,a
1093 8000      3612            sjmp    L021208?
1095           3613   L021201?:
1095           3614   ;        .\cmon51.c:933: else if (x==0xa8) IE_save=c;
1095 BFA828    3615            cjne    r7,#0xA8,L021198?
1098 904DC8    3616            mov     dptr,#_IE_save
109B EE        3617            mov     a,r6
109C F0        3618            movx    @dptr,a
109D 8000      3619            sjmp    L021208?
109F           3620   L021198?:
109F           3621   ;        .\cmon51.c:934: else if (x==0x81) SP_save=c;
109F BF8168    3622            cjne    r7,#0x81,L021195?
10A2 904D08    3623            mov     dptr,#_SP_save
10A5 EE        3624            mov     a,r6
10A6 F0        3625            movx    @dptr,a
10A7 8000      3626            sjmp    L021208?
10A9           3627   L021195?:
10A9           3628   ;        .\cmon51.c:935: else if (x==0x82) DPL_save=c;
10A9 BF82A8    3629            cjne    r7,#0x82,L021192?
10AC 904D88    3630            mov     dptr,#_DPL_save
10AF EE        3631            mov     a,r6
10B0 F0        3632            movx    @dptr,a
10B1 A3        3633            inc     dptr
10B2 E4        3634            clr     a
10B3 F0        3635            movx    @dptr,a
10B4 8000      3636            sjmp    L021208?
10B6           3637   L021192?:
10B6           3638   ;        .\cmon51.c:936: else if (x==0x83) DPH_save=c;
10B6 BF83E8    3639            cjne    r7,#0x83,L021189?
10B9 904D48    3640            mov     dptr,#_DPH_save
10BC EE        3641            mov     a,r6
10BD F0        3642            movx    @dptr,a
10BE A3        3643            inc     dptr
10BF E4        3644            clr     a
10C0 F0        3645            movx    @dptr,a
10C1 8000      3646            sjmp    L021208?
10C3           3647   L021189?:
10C3           3648   ;        .\cmon51.c:937: else write_sfr(x, c);
10C3 8E00      3649            mov     _write_sfr_PARM_2,r6
10C5 8F82      3650            mov     dpl,r7
10C7 120000    3651            lcall   _write_sfr
10CA           3652   L021208?:
10CA           3653   ;        .\cmon51.c:938: outcursor();
10CA 120000    3654            lcall   _outcursor
10CD 020000    3655            ljmp    L021220?
10D0           3656   L021213?:
10D0           3657   ;        .\cmon51.c:942: if(y==0xff)
10D0 EB        3658            mov     a,r3
10D1 6000      3659            jz      L021210?
10D3           3660   ;        .\cmon51.c:943: outbytenl(d);
10D3 8A82      3661            mov     dpl,r2
10D5 120000    3662            lcall   _outbytenl
10D8 020000    3663            ljmp    L021220?
10DB           3664   L021210?:
10DB           3665   ;        .\cmon51.c:946: putcnl((d&y)?'1':'0');
10DB E588      3666            mov     a,_do_cmd_y_1_168
10DD 5A        3667            anl     a,r2
10DE 6000      3668            jz      L021244?
10E0 7A31      3669            mov     r2,#0x31
10E2 8000      3670            sjmp    L021245?
10E4           3671   L021244?:
10E4 7A30      3672            mov     r2,#0x30
10E6           3673   L021245?:
10E6 8A82      3674            mov     dpl,r2
10E8 120000    3675            lcall   _putcnl
10EB 020000    3676            ljmp    L021220?
10EE           3677   L021216?:
10EE           3678   ;        .\cmon51.c:950: else putsp("What?\n> ");
10EE 90D578    3679            mov     dptr,#__str_4
10F1 75F080    3680            mov     b,#0x80
10F4 120000    3681            lcall   _putsp
10F7           3682   ;        .\cmon51.c:952: }
10F7 020000    3683            ljmp    L021220?
10FA           3684            rseg R_CSEG
10FA           3685   
0000           3686            rseg R_XINIT
0000           3687   
0000           3688            rseg R_CONST
0000           3689   _cmdlst:
0000 80        3690            db 0x80
0001 44        3691            db 'D'
0002 81        3692            db 0x81
0003 4D44      3693            db 'MD'
0005 82        3694            db 0x82
0006 4644      3695            db 'FD'
0008 83        3696            db 0x83
0009 49        3697            db 'I'
000A 84        3698            db 0x84
000B 4D49      3699            db 'MI'
000D 85        3700            db 0x85
000E 4649      3701            db 'FI'
0010 86        3702            db 0x86
0011 58        3703            db 'X'
0012 87        3704            db 0x87
0013 4D58      3705            db 'MX'
0015 88        3706            db 0x88
0016 4658      3707            db 'FX'
0018 89        3708            db 0x89
0019 43        3709            db 'C'
001A 8A        3710            db 0x8A
001B 55        3711            db 'U'
001C 8B        3712            db 0x8B
001D 47        3713            db 'G'
001E 8C        3714            db 0x8C
001F 53        3715            db 'S'
0020 8D        3716            db 0x8D
0021 52        3717            db 'R'
0022 8E        3718            db 0x8E
0023 4C        3719            db 'L'
0024 8F        3720            db 0x8F
0025 44505452  3721            db 'DPTR'
0029 90        3722            db 0x90
002A 5043      3723            db 'PC'
002C 91        3724            db 0x91
002D 54        3725            db 'T'
002E 92        3726            db 0x92
002F 5230      3727            db 'R0'
0031 93        3728            db 0x93
0032 5231      3729            db 'R1'
0034 94        3730            db 0x94
0035 5232      3731            db 'R2'
0037 95        3732            db 0x95
0038 5233      3733            db 'R3'
003A 96        3734            db 0x96
003B 52        3735            db 'R'
003C 34        3736            db '4'
003D 97        3737            db 0x97
003E 5235      3738            db 'R5'
0040 98        3739            db 0x98
0041 5236      3740            db 'R6'
0043 99        3741            db 0x99
0044 5237      3742            db 'R7'
0046 9A        3743            db 0x9A
0047 5452      3744            db 'TR'
0049 9B        3745            db 0x9B
004A 4742      3746            db 'GB'
004C 9C        3747            db 0x9C
004D 42524C    3748            db 'BRL'
0050 9D        3749            db 0x9D
0051 425243    3750            db 'BRC'
0054 9E        3751            db 0x9E
0055 425232    3752            db 'BR2'
0058 9F        3753            db 0x9F
0059 425233    3754            db 'BR3'
005C A0        3755            db 0xA0
005D 42524F46  3756            db 'BROFF'
     46
0062 A1        3757            db 0xA1
0063 42524F4E  3758            db 'BRON'
0067 A2        3759            db 0xA2
0068 504352    3760            db 'PCR'
006B A3        3761            db 0xA3
006C 4C454447  3762            db 'LEDG'
0070 A4        3763            db 0xA4
0071 4C454452  3764            db 'LEDRA'
     41
0076 A5        3765            db 0xA5
0077 4C        3766            db 'L'
0078 45445242  3767            db 'EDRB'
007C A6        3768            db 0xA6
007D 4C454452  3769            db 'LEDRC'
     43
0082 A7        3770            db 0xA7
0083 4B4559    3771            db 'KEY'
0086 A8        3772            db 0xA8
0087 535741    3773            db 'SWA'
008A A9        3774            db 0xA9
008B 535742    3775            db 'SWB'
008E AA        3776            db 0xAA
008F 535743    3777            db 'SWC'
0092 AB        3778            db 0xAB
0093 42414E4B  3779            db 'BANK'
0097 AC        3780            db 0xAC
0098 4D43      3781            db 'MC'
009A AD        3782            db 0xAD
009B 4643      3783            db 'FC'
009D AE        3784            db 0xAE
009E AF        3785            db 0xAF
009F 00        3786            db 0x00
00A0 00        3787            db 0x00
00A1           3788   _hexval:
00A1 30313233  3789            db '0123456789ABCDEF'
     34353637
     38394142
     43444546
00B1 00        3790            db 0x00
00B2           3791   _maskbit:
00B2 01        3792            db 0x01         ; 1
00B3 02        3793            db 0x02         ; 2
00B4 04        3794            db 0x04         ; 4
00B5 08        3795            db 0x08         ; 8
00B6 10        3796            db 0x10         ; 16
00B7 20        3797            db 0x20         ; 32
00B8 40        3798            db 0x40         ; 64
00B9 80        3799            db 0x80         ; 128
00BA           3800   _nba:
00BA 4E6F7420  3801            db 'Not bit-addressable!'
     6269742D
     61646472
     65737361
     626C6521
00CE 0A        3802            db 0x0A
00CF 3E20      3803            db '> '
00D1 00        3804            db 0x00
00D2           3805   _cnr:
00D2 43616E    3806            db 'Can'
00D5 27        3807            db 0x27
00D6 74207265  3808            db 't read!'
     616421
00DD 0A        3809            db 0x0A
00DE 3E20      3810            db '> '
00E0 00        3811            db 0x00
00E1           3812   _cnw:
00E1 43616E    3813            db 'Can'
00E4 27        3814            db 0x27
00E5 74207772  3815            db 't write!'
     69746521
00ED 0A        3816            db 0x0A
00EE 3E20      3817            db '> '
00F0 00        3818            db 0x00
00F1           3819   __str_0:
00F1 3D2020    3820            db '=  '
00F4 00        3821            db 0x00
00F5           3822   __str_1:
00F5 3A2020    3823            db ':  '
00F8 00        3824            db 0x00
00F9           3825   __str_2:
00F9 202020    3826            db '   '
00FC 00        3827            db 0x00
00FD           3828   _regframe:
00FD 41203D78  3829            db 'A =xx  B =xx  SP=xx  IE=xx  DPH=xx DPL=xx PSW=xx PC=xxxx'
     78202042
     203D7878
     20205350
     3D787820
     2049453D
     78782020
     4450483D
     78782044
     504C3D78
     78205053
     573D7878
     2050433D
     78787878
0135 0D        3830            db 0x0D
0136 0A        3831            db 0x0A
0137 5230      3832            db 'R0'
0139 3D787820  3833            db '=xx  R1=xx  R2=xx  R3=xx  R4=xx  R5=xx  R6=xx  R7=xx  BANK=x'
     2052313D
     78782020
     52323D78
     78202052
     333D7878
     20205234
     3D787820
     2052353D
     78782020
     52363D78
     78202052
     373D7878
     20204241
     4E4B3D78
0175 0D        3834            db 0x0D
0176 0A        3835            db 0x0A
0177 00        3836            db 0x00
0178           3837   __str_3:
0178 0A        3838            db 0x0A
0179 0A        3839            db 0x0A
017A 434D4F4E  3840            db 'CMON51 V2.0'
     35312056
     322E30
0185 0A        3841            db 0x0A
0186 436F7079  3842            db 'CopyRight (c) 2005-2024 Jesus Calvino-Fraga'
     52696768
     74202863
     29203230
     30352D32
     30323420
     4A657375
     73204361
     6C76696E
     6F2D4672
     616761
01B1 0A        3843            db 0x0A
01B2 506F      3844            db 'Po'
01B4 72743A20  3845            db 'rt: MAX_8052 V1.1'
     4D41585F
     38303532
     2056312E
     31
01C5 0A        3846            db 0x0A
01C6 3E20      3847            db '> '
01C8 00        3848            db 0x00
01C9           3849   __str_4:
01C9 57686174  3850            db 'What?'
     3F
01CE 0A        3851            db 0x0A
01CF 3E20      3852            db '> '
01D1 00        3853            db 0x00
01D2           3854   
0000           3855            CSEG
0000           3856   
0000           3857   end
